
.//main.elf:     file format elf32-sparc


Disassembly of section .text:

00000000 <_start>:
       0:	40 00 00 9a 	call  268 <clear_stack_pointers>
       4:	01 00 00 00 	nop 

00000008 <CORTOS_SET_PSR>:
       8:	21 00 00 04 	sethi  %hi(0x1000), %l0
       c:	a0 14 20 e0 	or  %l0, 0xe0, %l0	! 10e0 <__ajit_serial_set_baudrate_via_bypass__+0x70>
      10:	81 88 00 10 	mov  %l0, %psr

00000014 <COROTS_WIMSET>:
      14:	a0 10 20 01 	mov  1, %l0
      18:	81 94 20 00 	mov  %l0, %wim
      1c:	21 00 00 24 	sethi  %hi(0x9000), %l0
      20:	a0 14 20 00 	mov  %l0, %l0	! 9000 <trap_table_base>
      24:	81 9c 20 00 	mov  %l0, %tbr

00000028 <CORTOS_READ_CORE_THREAD_ID>:
      28:	a3 47 40 00 	rd  %asr29, %l1

0000002c <CORTOS_SETUP_THREADS>:
      2c:	25 14 14 80 	sethi  %hi(0x50520000), %l2
      30:	80 a4 40 12 	cmp  %l1, %l2
      34:	12 80 00 89 	bne  258 <CORTOS_HALT_ERROR>
      38:	01 00 00 00 	nop 
      3c:	1d 00 00 c7 	sethi  %hi(0x31c00), %sp
      40:	9c 13 a3 a0 	or  %sp, 0x3a0, %sp	! 31fa0 <allocatedLocks+0x20db0>
      44:	bc 10 00 00 	mov  %g0, %fp
      48:	05 00 00 41 	sethi  %hi(0x10400), %g2
      4c:	84 10 a3 78 	or  %g2, 0x378, %g2	! 10778 <INIT_BY_00_DONE>
      50:	c4 00 80 00 	ld  [ %g2 ], %g2
      54:	86 10 20 00 	clr  %g3
      58:	c6 20 80 00 	st  %g3, [ %g2 ]
      5c:	05 00 00 41 	sethi  %hi(0x10400), %g2
      60:	84 10 a3 74 	or  %g2, 0x374, %g2	! 10774 <PT_FLAG>
      64:	c4 00 80 00 	ld  [ %g2 ], %g2
      68:	86 10 20 00 	clr  %g3
      6c:	c6 20 80 00 	st  %g3, [ %g2 ]
      70:	40 00 00 53 	call  1bc <__cortos_init_region_to_zero>
      74:	01 00 00 00 	nop 
      78:	40 00 1a e2 	call  6c00 <page_table_setup>
      7c:	01 00 00 00 	nop 
      80:	2d 00 00 41 	sethi  %hi(0x10400), %l6
      84:	ac 15 a3 74 	or  %l6, 0x374, %l6	! 10774 <PT_FLAG>
      88:	ec 05 80 00 	ld  [ %l6 ], %l6
      8c:	ae 10 20 01 	mov  1, %l7
      90:	ee 25 80 00 	st  %l7, [ %l6 ]
      94:	40 00 1e 00 	call  7894 <set_context_table_pointer>
      98:	01 00 00 00 	nop 
      9c:	90 10 20 01 	mov  1, %o0	! 1 <_start+0x1>
      a0:	d0 a0 00 80 	sta  %o0, [ %g0 ] #ASI_N
      a4:	40 00 0b fd 	call  3098 <cortos_init_locks>
      a8:	01 00 00 00 	nop 
      ac:	40 00 01 50 	call  5ec <__cortos_bpool>
      b0:	01 00 00 00 	nop 
      b4:	40 00 01 73 	call  680 <__cortos_bpool_ncram>
      b8:	01 00 00 00 	nop 
      bc:	40 00 0b 86 	call  2ed4 <cortos_init_hw_traps>
      c0:	01 00 00 00 	nop 
      c4:	40 00 0b 87 	call  2ee0 <cortos_init_sw_traps>
      c8:	01 00 00 00 	nop 
      cc:	40 00 11 3d 	call  45c0 <__cortos_enable_serial>
      d0:	01 00 00 00 	nop 
      d4:	40 00 0c 3e 	call  31cc <cortos_init_printing>
      d8:	01 00 00 00 	nop 
      dc:	40 00 06 9b 	call  1b48 <cortos_init_logging>
      e0:	01 00 00 00 	nop 
      e4:	05 00 00 41 	sethi  %hi(0x10400), %g2
      e8:	84 10 a3 78 	or  %g2, 0x378, %g2	! 10778 <INIT_BY_00_DONE>
      ec:	c4 00 80 00 	ld  [ %g2 ], %g2
      f0:	86 10 20 01 	mov  1, %g3
      f4:	c6 20 80 00 	st  %g3, [ %g2 ]
      f8:	a3 47 40 00 	rd  %asr29, %l1
      fc:	10 80 00 15 	b  150 <CORTOS_START_THREADS>
     100:	01 00 00 00 	nop 

00000104 <AFTER_PTABLE_SETUP>:
     104:	2d 00 00 41 	sethi  %hi(0x10400), %l6
     108:	ac 15 a3 74 	or  %l6, 0x374, %l6	! 10774 <PT_FLAG>
     10c:	ec 05 80 00 	ld  [ %l6 ], %l6
     110:	ee 05 80 00 	ld  [ %l6 ], %l7
     114:	b0 10 20 01 	mov  1, %i0
     118:	80 a6 00 17 	cmp  %i0, %l7
     11c:	12 bf ff fa 	bne  104 <AFTER_PTABLE_SETUP>
     120:	01 00 00 00 	nop 
     124:	40 00 1d dc 	call  7894 <set_context_table_pointer>
     128:	01 00 00 00 	nop 
     12c:	90 10 20 01 	mov  1, %o0	! 1 <_start+0x1>
     130:	d0 a0 00 80 	sta  %o0, [ %g0 ] #ASI_N
     134:	10 80 00 07 	b  150 <CORTOS_START_THREADS>
     138:	01 00 00 00 	nop 

0000013c <WAIT_UNTIL_MMU_IS_ENABLED>:
     13c:	90 10 20 01 	mov  1, %o0	! 1 <_start+0x1>
     140:	d0 80 00 80 	lda  [ %g0 ] #ASI_N, %o0
     144:	90 8a 20 01 	andcc  %o0, 1, %o0
     148:	02 bf ff fd 	be  13c <WAIT_UNTIL_MMU_IS_ENABLED>
     14c:	01 00 00 00 	nop 

00000150 <CORTOS_START_THREADS>:
     150:	25 14 14 80 	sethi  %hi(0x50520000), %l2
     154:	80 a4 40 12 	cmp  %l1, %l2
     158:	12 80 00 40 	bne  258 <CORTOS_HALT_ERROR>
     15c:	01 00 00 00 	nop 
     160:	40 00 27 a8 	call  a000 <main>
     164:	01 00 00 00 	nop 

00000168 <START_THREAD_0_0_LOOP>:
     168:	10 80 00 3e 	b  260 <CORTOS_HALT_OKAY>
     16c:	01 00 00 00 	nop 

00000170 <__cortos_clear_stack_pointers>:
     170:	81 90 00 00 	mov  %g0, %wim
     174:	9c 10 00 00 	mov  %g0, %sp
     178:	81 e0 00 00 	save 
     17c:	9c 10 00 00 	mov  %g0, %sp
     180:	81 e0 00 00 	save 
     184:	9c 10 00 00 	mov  %g0, %sp
     188:	81 e0 00 00 	save 
     18c:	9c 10 00 00 	mov  %g0, %sp
     190:	81 e0 00 00 	save 
     194:	9c 10 00 00 	mov  %g0, %sp
     198:	81 e0 00 00 	save 
     19c:	9c 10 00 00 	mov  %g0, %sp
     1a0:	81 e0 00 00 	save 
     1a4:	9c 10 00 00 	mov  %g0, %sp
     1a8:	81 e0 00 00 	save 
     1ac:	9c 10 00 00 	mov  %g0, %sp
     1b0:	81 e0 00 00 	save 
     1b4:	81 c3 e0 08 	retl 
     1b8:	01 00 00 00 	nop 

000001bc <__cortos_init_region_to_zero>:
     1bc:	21 00 00 44 	sethi  %hi(0x11000), %l0
     1c0:	a0 14 20 00 	mov  %l0, %l0	! 11000 <bgetNcramLockAddr>
     1c4:	25 00 00 48 	sethi  %hi(0x12000), %l2
     1c8:	a4 14 a0 00 	mov  %l2, %l2	! 12000 <allocatedLocks+0xe10>
     1cc:	a4 24 a0 04 	sub  %l2, 4, %l2

000001d0 <_cortos_zero_init_area_BssSection>:
     1d0:	c0 2c 00 00 	clrb  [ %l0 ]
     1d4:	80 a4 00 12 	cmp  %l0, %l2
     1d8:	12 bf ff fe 	bne  1d0 <_cortos_zero_init_area_BssSection>
     1dc:	a0 04 20 01 	inc  %l0
     1e0:	21 00 00 48 	sethi  %hi(0x12000), %l0
     1e4:	a0 14 20 00 	mov  %l0, %l0	! 12000 <allocatedLocks+0xe10>
     1e8:	25 00 00 4c 	sethi  %hi(0x13000), %l2
     1ec:	a4 14 a0 00 	mov  %l2, %l2	! 13000 <allocatedLocks+0x1e10>
     1f0:	a4 24 a0 04 	sub  %l2, 4, %l2

000001f4 <_cortos_zero_init_area_CacheableLocks>:
     1f4:	c0 2c 00 00 	clrb  [ %l0 ]
     1f8:	80 a4 00 12 	cmp  %l0, %l2
     1fc:	12 bf ff fe 	bne  1f4 <_cortos_zero_init_area_CacheableLocks>
     200:	a0 04 20 01 	inc  %l0
     204:	21 00 00 4c 	sethi  %hi(0x13000), %l0
     208:	a0 14 20 00 	mov  %l0, %l0	! 13000 <allocatedLocks+0x1e10>
     20c:	25 00 00 50 	sethi  %hi(0x14000), %l2
     210:	a4 14 a0 00 	mov  %l2, %l2	! 14000 <allocatedLocks+0x2e10>
     214:	a4 24 a0 04 	sub  %l2, 4, %l2

00000218 <_cortos_zero_init_area_NonCacheableLocks>:
     218:	c0 2c 00 00 	clrb  [ %l0 ]
     21c:	80 a4 00 12 	cmp  %l0, %l2
     220:	12 bf ff fe 	bne  218 <_cortos_zero_init_area_NonCacheableLocks>
     224:	a0 04 20 01 	inc  %l0
     228:	81 c3 e0 08 	retl 
     22c:	01 00 00 00 	nop 

00000230 <__cortos_wait_for_init_by_00>:
     230:	2d 00 00 41 	sethi  %hi(0x10400), %l6
     234:	ac 15 a3 78 	or  %l6, 0x378, %l6	! 10778 <INIT_BY_00_DONE>
     238:	ec 05 80 00 	ld  [ %l6 ], %l6

0000023c <_CORTOS_WAIT_FOR_INIT_BY_00>:
     23c:	ee 05 80 00 	ld  [ %l6 ], %l7
     240:	b0 10 20 01 	mov  1, %i0
     244:	80 a6 00 17 	cmp  %i0, %l7
     248:	12 bf ff fd 	bne  23c <_CORTOS_WAIT_FOR_INIT_BY_00>
     24c:	01 00 00 00 	nop 
     250:	81 c3 e0 08 	retl 
     254:	01 00 00 00 	nop 

00000258 <CORTOS_HALT_ERROR>:
     258:	a1 80 20 01 	mov  1, %asr16
     25c:	91 d0 20 00 	ta  0

00000260 <CORTOS_HALT_OKAY>:
     260:	a1 80 20 00 	mov  %g0, %asr16
     264:	91 d0 20 00 	ta  0

00000268 <clear_stack_pointers>:
     268:	81 90 00 00 	mov  %g0, %wim
     26c:	9c 10 00 00 	mov  %g0, %sp
     270:	81 e0 00 00 	save 
     274:	9c 10 00 00 	mov  %g0, %sp
     278:	81 e0 00 00 	save 
     27c:	9c 10 00 00 	mov  %g0, %sp
     280:	81 e0 00 00 	save 
     284:	9c 10 00 00 	mov  %g0, %sp
     288:	81 e0 00 00 	save 
     28c:	9c 10 00 00 	mov  %g0, %sp
     290:	81 e0 00 00 	save 
     294:	9c 10 00 00 	mov  %g0, %sp
     298:	81 e0 00 00 	save 
     29c:	9c 10 00 00 	mov  %g0, %sp
     2a0:	81 e0 00 00 	save 
     2a4:	9c 10 00 00 	mov  %g0, %sp
     2a8:	81 e0 00 00 	save 
     2ac:	81 c3 e0 08 	retl 
     2b0:	01 00 00 00 	nop 

000002b4 <cortos_lock_acquire_buzy>:
     2b4:	9d e3 bf a0 	save  %sp, -96, %sp

000002b8 <wait_for_lock>:
     2b8:	e2 0e 00 00 	ldub  [ %i0 ], %l1
     2bc:	80 94 40 00 	tst  %l1
     2c0:	12 bf ff fe 	bne  2b8 <wait_for_lock>
     2c4:	01 00 00 00 	nop 

000002c8 <try_to_lock>:
     2c8:	e2 6e 00 00 	ldstub  [ %i0 ], %l1
     2cc:	80 94 40 00 	tst  %l1
     2d0:	02 80 00 03 	be  2dc <out>
     2d4:	01 00 00 00 	nop 
     2d8:	30 bf ff f8 	b,a   2b8 <wait_for_lock>

000002dc <out>:
     2dc:	b0 10 20 01 	mov  1, %i0	! 1 <_start+0x1>
     2e0:	81 e8 00 00 	restore 
     2e4:	81 c3 e0 08 	retl 
     2e8:	01 00 00 00 	nop 

000002ec <cortos_lock_acquire>:
     2ec:	9d e3 bf a0 	save  %sp, -96, %sp

000002f0 <try_to_lock_once>:
     2f0:	e2 6e 00 00 	ldstub  [ %i0 ], %l1
     2f4:	80 94 40 00 	tst  %l1
     2f8:	02 80 00 03 	be  304 <lock_acquired>
     2fc:	01 00 00 00 	nop 
     300:	30 80 00 03 	b,a   30c <lock_not_acquired>

00000304 <lock_acquired>:
     304:	10 80 00 03 	b  310 <exit_cortos_lock_acquire>
     308:	b0 10 20 01 	mov  1, %i0

0000030c <lock_not_acquired>:
     30c:	b0 10 00 00 	mov  %g0, %i0

00000310 <exit_cortos_lock_acquire>:
     310:	81 e8 00 00 	restore 
     314:	81 c3 e0 08 	retl 
     318:	01 00 00 00 	nop 

0000031c <cortos_lock_release>:
     31c:	9d e3 bf a0 	save  %sp, -96, %sp
     320:	81 43 c0 00 	stbar 
     324:	c0 2e 00 00 	clrb  [ %i0 ]
     328:	81 e8 00 00 	restore 
     32c:	81 c3 e0 08 	retl 
     330:	01 00 00 00 	nop 

00000334 <cortos_reserveQueue>:
     334:	9d e3 bf a0 	save  %sp, -96, %sp
     338:	90 5e 40 18 	smul  %i1, %i0, %o0
     33c:	80 a6 a0 00 	cmp  %i2, 0
     340:	02 80 00 17 	be  39c <cortos_reserveQueue+0x68>
     344:	90 02 20 30 	add  %o0, 0x30, %o0
     348:	40 00 00 e0 	call  6c8 <cortos_bget_ncram>
     34c:	01 00 00 00 	nop 
     350:	b8 10 00 08 	mov  %o0, %i4
     354:	80 a7 20 00 	cmp  %i4, 0
     358:	02 80 00 15 	be  3ac <cortos_reserveQueue+0x78>
     35c:	84 10 20 10 	mov  0x10, %g2
     360:	82 0f 20 0f 	and  %i4, 0xf, %g1
     364:	82 20 80 01 	sub  %g2, %g1, %g1
     368:	90 10 20 01 	mov  1, %o0
     36c:	ba 07 00 01 	add  %i4, %g1, %i5
     370:	c0 27 00 01 	clr  [ %i4 + %g1 ]
     374:	c0 27 60 04 	clr  [ %i5 + 4 ]
     378:	c0 27 60 08 	clr  [ %i5 + 8 ]
     37c:	f0 27 60 10 	st  %i0, [ %i5 + 0x10 ]
     380:	40 00 0b 4d 	call  30b4 <cortos_reserveLock>
     384:	f2 27 60 0c 	st  %i1, [ %i5 + 0xc ]
     388:	f8 27 60 18 	st  %i4, [ %i5 + 0x18 ]
     38c:	d0 27 60 14 	st  %o0, [ %i5 + 0x14 ]
     390:	c0 27 60 1c 	clr  [ %i5 + 0x1c ]
     394:	81 c7 e0 08 	ret 
     398:	91 e8 00 1d 	restore  %g0, %i5, %o0
     39c:	40 00 00 a5 	call  630 <cortos_bget>
     3a0:	01 00 00 00 	nop 
     3a4:	10 bf ff ec 	b  354 <cortos_reserveQueue+0x20>
     3a8:	b8 10 00 08 	mov  %o0, %i4
     3ac:	10 bf ff fa 	b  394 <cortos_reserveQueue+0x60>
     3b0:	ba 10 20 00 	clr  %i5

000003b4 <cortos_freeQueue>:
     3b4:	9d e3 bf a0 	save  %sp, -96, %sp
     3b8:	40 00 0b 66 	call  3150 <cortos_freeLock>
     3bc:	d0 06 20 14 	ld  [ %i0 + 0x14 ], %o0
     3c0:	40 00 0b a1 	call  3244 <cortos_IsNcRamAddr>
     3c4:	90 10 00 18 	mov  %i0, %o0
     3c8:	80 8a 20 ff 	btst  0xff, %o0
     3cc:	12 80 00 04 	bne  3dc <cortos_freeQueue+0x28>
     3d0:	f0 06 20 18 	ld  [ %i0 + 0x18 ], %i0
     3d4:	40 00 00 a2 	call  65c <cortos_brel>
     3d8:	81 e8 00 00 	restore 
     3dc:	40 00 00 c6 	call  6f4 <cortos_brel_ncram>
     3e0:	81 e8 00 00 	restore 

000003e4 <cortos_writeMessages>:
     3e4:	9d e3 bf a0 	save  %sp, -96, %sp
     3e8:	c2 06 20 1c 	ld  [ %i0 + 0x1c ], %g1
     3ec:	80 88 60 01 	btst  1, %g1
     3f0:	02 80 00 35 	be  4c4 <cortos_writeMessages+0xe0>
     3f4:	01 00 00 00 	nop 
     3f8:	c2 06 00 00 	ld  [ %i0 ], %g1
     3fc:	80 a0 60 00 	cmp  %g1, 0
     400:	12 80 00 2e 	bne  4b8 <cortos_writeMessages+0xd4>
     404:	ba 10 20 00 	clr  %i5
     408:	f8 06 20 08 	ld  [ %i0 + 8 ], %i4
     40c:	de 06 20 0c 	ld  [ %i0 + 0xc ], %o7
     410:	c6 06 20 10 	ld  [ %i0 + 0x10 ], %g3
     414:	80 a6 a0 00 	cmp  %i2, 0
     418:	02 80 00 20 	be  498 <cortos_writeMessages+0xb4>
     41c:	9a 06 20 20 	add  %i0, 0x20, %o5
     420:	80 a3 c0 1d 	cmp  %o7, %i5
     424:	08 80 00 30 	bleu  4e4 <cortos_writeMessages+0x100>
     428:	b6 10 00 1a 	mov  %i2, %i3
     42c:	88 5f 00 03 	smul  %i4, %g3, %g4
     430:	82 10 20 00 	clr  %g1
     434:	80 a0 e0 00 	cmp  %g3, 0
     438:	02 80 00 08 	be  458 <cortos_writeMessages+0x74>
     43c:	88 03 40 04 	add  %o5, %g4, %g4
     440:	c4 0e 40 01 	ldub  [ %i1 + %g1 ], %g2
     444:	c4 29 00 01 	stb  %g2, [ %g4 + %g1 ]
     448:	82 00 60 01 	inc  %g1
     44c:	80 a0 40 03 	cmp  %g1, %g3
     450:	32 bf ff fd 	bne,a   444 <cortos_writeMessages+0x60>
     454:	c4 0e 40 01 	ldub  [ %i1 + %g1 ], %g2
     458:	b8 07 20 01 	inc  %i4
     45c:	ba 07 60 01 	inc  %i5
     460:	81 80 20 00 	mov  %g0, %y
     464:	01 00 00 00 	nop 
     468:	01 00 00 00 	nop 
     46c:	01 00 00 00 	nop 
     470:	82 77 00 0f 	udiv  %i4, %o7, %g1
     474:	b6 86 ff ff 	addcc  %i3, -1, %i3
     478:	82 58 40 0f 	smul  %g1, %o7, %g1
     47c:	02 80 00 07 	be  498 <cortos_writeMessages+0xb4>
     480:	b8 27 00 01 	sub  %i4, %g1, %i4
     484:	c2 06 20 0c 	ld  [ %i0 + 0xc ], %g1
     488:	80 a0 40 1d 	cmp  %g1, %i5
     48c:	18 bf ff e8 	bgu  42c <cortos_writeMessages+0x48>
     490:	b2 06 40 03 	add  %i1, %g3, %i1
     494:	b4 26 80 1b 	sub  %i2, %i3, %i2
     498:	f8 26 20 08 	st  %i4, [ %i0 + 8 ]
     49c:	fa 26 00 00 	st  %i5, [ %i0 ]
     4a0:	c2 06 20 1c 	ld  [ %i0 + 0x1c ], %g1
     4a4:	80 88 60 01 	btst  1, %g1
     4a8:	22 80 00 0b 	be,a   4d4 <cortos_writeMessages+0xf0>
     4ac:	d0 06 20 14 	ld  [ %i0 + 0x14 ], %o0
     4b0:	81 c7 e0 08 	ret 
     4b4:	91 e8 00 1a 	restore  %g0, %i2, %o0
     4b8:	b4 10 20 00 	clr  %i2
     4bc:	81 c7 e0 08 	ret 
     4c0:	91 e8 00 1a 	restore  %g0, %i2, %o0
     4c4:	7f ff ff 7c 	call  2b4 <cortos_lock_acquire_buzy>
     4c8:	d0 06 20 14 	ld  [ %i0 + 0x14 ], %o0
     4cc:	10 bf ff cf 	b  408 <cortos_writeMessages+0x24>
     4d0:	fa 06 00 00 	ld  [ %i0 ], %i5
     4d4:	7f ff ff 92 	call  31c <cortos_lock_release>
     4d8:	b0 10 00 1a 	mov  %i2, %i0
     4dc:	81 c7 e0 08 	ret 
     4e0:	81 e8 00 00 	restore 
     4e4:	10 bf ff ed 	b  498 <cortos_writeMessages+0xb4>
     4e8:	b4 10 20 00 	clr  %i2

000004ec <cortos_readMessages>:
     4ec:	9d e3 bf a0 	save  %sp, -96, %sp
     4f0:	c2 06 20 1c 	ld  [ %i0 + 0x1c ], %g1
     4f4:	80 88 60 01 	btst  1, %g1
     4f8:	02 80 00 33 	be  5c4 <cortos_readMessages+0xd8>
     4fc:	01 00 00 00 	nop 
     500:	fa 06 00 00 	ld  [ %i0 ], %i5
     504:	80 a7 60 00 	cmp  %i5, 0
     508:	02 80 00 2d 	be  5bc <cortos_readMessages+0xd0>
     50c:	b6 10 20 00 	clr  %i3
     510:	f8 06 20 04 	ld  [ %i0 + 4 ], %i4
     514:	de 06 20 0c 	ld  [ %i0 + 0xc ], %o7
     518:	c6 06 20 10 	ld  [ %i0 + 0x10 ], %g3
     51c:	80 a7 60 00 	cmp  %i5, 0
     520:	02 80 00 31 	be  5e4 <cortos_readMessages+0xf8>
     524:	9a 06 20 20 	add  %i0, 0x20, %o5
     528:	80 a6 a0 00 	cmp  %i2, 0
     52c:	02 80 00 1e 	be  5a4 <cortos_readMessages+0xb8>
     530:	b6 10 20 00 	clr  %i3
     534:	b6 10 00 1a 	mov  %i2, %i3
     538:	88 5f 00 03 	smul  %i4, %g3, %g4
     53c:	82 10 20 00 	clr  %g1
     540:	80 a0 e0 00 	cmp  %g3, 0
     544:	02 80 00 08 	be  564 <cortos_readMessages+0x78>
     548:	88 03 40 04 	add  %o5, %g4, %g4
     54c:	c4 09 00 01 	ldub  [ %g4 + %g1 ], %g2
     550:	c4 2e 40 01 	stb  %g2, [ %i1 + %g1 ]
     554:	82 00 60 01 	inc  %g1
     558:	80 a0 40 03 	cmp  %g1, %g3
     55c:	32 bf ff fd 	bne,a   550 <cortos_readMessages+0x64>
     560:	c4 09 00 01 	ldub  [ %g4 + %g1 ], %g2
     564:	b8 07 20 01 	inc  %i4
     568:	b6 06 ff ff 	add  %i3, -1, %i3
     56c:	81 80 20 00 	mov  %g0, %y
     570:	01 00 00 00 	nop 
     574:	01 00 00 00 	nop 
     578:	01 00 00 00 	nop 
     57c:	82 77 00 0f 	udiv  %i4, %o7, %g1
     580:	b2 06 40 03 	add  %i1, %g3, %i1
     584:	82 58 40 0f 	smul  %g1, %o7, %g1
     588:	ba 87 7f ff 	addcc  %i5, -1, %i5
     58c:	02 80 00 05 	be  5a0 <cortos_readMessages+0xb4>
     590:	b8 27 00 01 	sub  %i4, %g1, %i4
     594:	80 a6 e0 00 	cmp  %i3, 0
     598:	32 bf ff e9 	bne,a   53c <cortos_readMessages+0x50>
     59c:	88 5f 00 03 	smul  %i4, %g3, %g4
     5a0:	b6 26 80 1b 	sub  %i2, %i3, %i3
     5a4:	f8 26 20 04 	st  %i4, [ %i0 + 4 ]
     5a8:	fa 26 00 00 	st  %i5, [ %i0 ]
     5ac:	c2 06 20 1c 	ld  [ %i0 + 0x1c ], %g1
     5b0:	80 88 60 01 	btst  1, %g1
     5b4:	22 80 00 08 	be,a   5d4 <cortos_readMessages+0xe8>
     5b8:	d0 06 20 14 	ld  [ %i0 + 0x14 ], %o0
     5bc:	81 c7 e0 08 	ret 
     5c0:	91 e8 00 1b 	restore  %g0, %i3, %o0
     5c4:	7f ff ff 3c 	call  2b4 <cortos_lock_acquire_buzy>
     5c8:	d0 06 20 14 	ld  [ %i0 + 0x14 ], %o0
     5cc:	10 bf ff d1 	b  510 <cortos_readMessages+0x24>
     5d0:	fa 06 00 00 	ld  [ %i0 ], %i5
     5d4:	7f ff ff 52 	call  31c <cortos_lock_release>
     5d8:	b0 10 00 1b 	mov  %i3, %i0
     5dc:	81 c7 e0 08 	ret 
     5e0:	81 e8 00 00 	restore 
     5e4:	10 bf ff f0 	b  5a4 <cortos_readMessages+0xb8>
     5e8:	b6 10 20 00 	clr  %i3

000005ec <__cortos_bpool>:
     5ec:	9d e3 bf a0 	save  %sp, -96, %sp
     5f0:	3b 00 00 44 	sethi  %hi(0x11000), %i5
     5f4:	c2 07 60 04 	ld  [ %i5 + 4 ], %g1	! 11004 <bgetLockAddr>
     5f8:	80 a0 60 00 	cmp  %g1, 0
     5fc:	12 80 00 0b 	bne  628 <__cortos_bpool+0x3c>
     600:	11 00 00 50 	sethi  %hi(0x14000), %o0
     604:	40 00 0b 67 	call  33a0 <bpool>
     608:	13 00 00 64 	sethi  %hi(0x19000), %o1
     60c:	03 00 00 44 	sethi  %hi(0x11000), %g1
     610:	82 10 60 f0 	or  %g1, 0xf0, %g1	! 110f0 <allocatedLocksNc>
     614:	84 10 20 01 	mov  1, %g2
     618:	c4 28 60 02 	stb  %g2, [ %g1 + 2 ]
     61c:	03 00 00 4c 	sethi  %hi(0x13000), %g1
     620:	82 10 60 02 	or  %g1, 2, %g1	! 13002 <allocatedLocks+0x1e12>
     624:	c2 27 60 04 	st  %g1, [ %i5 + 4 ]
     628:	81 c7 e0 08 	ret 
     62c:	81 e8 00 00 	restore 

00000630 <cortos_bget>:
     630:	9d e3 bf a0 	save  %sp, -96, %sp
     634:	3b 00 00 44 	sethi  %hi(0x11000), %i5
     638:	7f ff ff 1f 	call  2b4 <cortos_lock_acquire_buzy>
     63c:	d0 07 60 04 	ld  [ %i5 + 4 ], %o0	! 11004 <bgetLockAddr>
     640:	40 00 0b 28 	call  32e0 <bget>
     644:	90 10 00 18 	mov  %i0, %o0
     648:	b0 10 00 08 	mov  %o0, %i0
     64c:	7f ff ff 34 	call  31c <cortos_lock_release>
     650:	d0 07 60 04 	ld  [ %i5 + 4 ], %o0
     654:	81 c7 e0 08 	ret 
     658:	81 e8 00 00 	restore 

0000065c <cortos_brel>:
     65c:	9d e3 bf a0 	save  %sp, -96, %sp
     660:	3b 00 00 44 	sethi  %hi(0x11000), %i5
     664:	7f ff ff 14 	call  2b4 <cortos_lock_acquire_buzy>
     668:	d0 07 60 04 	ld  [ %i5 + 4 ], %o0	! 11004 <bgetLockAddr>
     66c:	40 00 0b 5e 	call  33e4 <brel>
     670:	90 10 00 18 	mov  %i0, %o0
     674:	f0 07 60 04 	ld  [ %i5 + 4 ], %i0
     678:	7f ff ff 29 	call  31c <cortos_lock_release>
     67c:	81 e8 00 00 	restore 

00000680 <__cortos_bpool_ncram>:
     680:	9d e3 bf a0 	save  %sp, -96, %sp
     684:	3b 00 00 44 	sethi  %hi(0x11000), %i5
     688:	c2 07 60 00 	ld  [ %i5 ], %g1
     68c:	80 a0 60 00 	cmp  %g1, 0
     690:	12 80 00 0c 	bne  6c0 <__cortos_bpool_ncram+0x40>
     694:	11 00 08 00 	sethi  %hi(0x200000), %o0
     698:	13 00 57 ff 	sethi  %hi(0x15ffc00), %o1
     69c:	40 00 0a 4a 	call  2fc4 <bpool_ncram>
     6a0:	92 12 63 ff 	or  %o1, 0x3ff, %o1	! 15fffff <allocatedLocks+0x15eee0f>
     6a4:	03 00 00 44 	sethi  %hi(0x11000), %g1
     6a8:	82 10 60 f0 	or  %g1, 0xf0, %g1	! 110f0 <allocatedLocksNc>
     6ac:	84 10 20 01 	mov  1, %g2
     6b0:	c4 28 60 03 	stb  %g2, [ %g1 + 3 ]
     6b4:	03 00 00 4c 	sethi  %hi(0x13000), %g1
     6b8:	82 10 60 03 	or  %g1, 3, %g1	! 13003 <allocatedLocks+0x1e13>
     6bc:	c2 27 60 00 	st  %g1, [ %i5 ]
     6c0:	81 c7 e0 08 	ret 
     6c4:	81 e8 00 00 	restore 

000006c8 <cortos_bget_ncram>:
     6c8:	9d e3 bf a0 	save  %sp, -96, %sp
     6cc:	3b 00 00 44 	sethi  %hi(0x11000), %i5
     6d0:	7f ff fe f9 	call  2b4 <cortos_lock_acquire_buzy>
     6d4:	d0 07 60 00 	ld  [ %i5 ], %o0
     6d8:	40 00 0a 05 	call  2eec <bget_ncram>
     6dc:	90 10 00 18 	mov  %i0, %o0
     6e0:	b0 10 00 08 	mov  %o0, %i0
     6e4:	7f ff ff 0e 	call  31c <cortos_lock_release>
     6e8:	d0 07 60 00 	ld  [ %i5 ], %o0
     6ec:	81 c7 e0 08 	ret 
     6f0:	81 e8 00 00 	restore 

000006f4 <cortos_brel_ncram>:
     6f4:	9d e3 bf a0 	save  %sp, -96, %sp
     6f8:	3b 00 00 44 	sethi  %hi(0x11000), %i5
     6fc:	7f ff fe ee 	call  2b4 <cortos_lock_acquire_buzy>
     700:	d0 07 60 00 	ld  [ %i5 ], %o0
     704:	40 00 0a 41 	call  3008 <brel_ncram>
     708:	90 10 00 18 	mov  %i0, %o0
     70c:	f0 07 60 00 	ld  [ %i5 ], %i0
     710:	7f ff ff 03 	call  31c <cortos_lock_release>
     714:	81 e8 00 00 	restore 

00000718 <ajit_initialize_interrupt_handlers_to_null>:
     718:	03 00 00 44 	sethi  %hi(0x11000), %g1
     71c:	82 10 60 64 	or  %g1, 0x64, %g1	! 11064 <ajit_global_interrupt_handlers>
     720:	84 00 60 40 	add  %g1, 0x40, %g2
     724:	c0 20 40 00 	clr  [ %g1 ]
     728:	82 00 60 04 	add  %g1, 4, %g1
     72c:	80 a0 40 02 	cmp  %g1, %g2
     730:	32 bf ff fe 	bne,a   728 <ajit_initialize_interrupt_handlers_to_null+0x10>
     734:	c0 20 40 00 	clr  [ %g1 ]
     738:	81 c3 e0 08 	retl 
     73c:	01 00 00 00 	nop 

00000740 <ajit_set_interrupt_handler>:
     740:	80 a2 20 0f 	cmp  %o0, 0xf
     744:	18 80 00 05 	bgu  758 <ajit_set_interrupt_handler+0x18>
     748:	91 2a 20 02 	sll  %o0, 2, %o0
     74c:	03 00 00 44 	sethi  %hi(0x11000), %g1
     750:	82 10 60 64 	or  %g1, 0x64, %g1	! 11064 <ajit_global_interrupt_handlers>
     754:	d2 20 40 08 	st  %o1, [ %g1 + %o0 ]
     758:	81 c3 e0 08 	retl 
     75c:	01 00 00 00 	nop 

00000760 <readInterruptControlRegister>:
     760:	90 02 00 08 	add  %o0, %o0, %o0
     764:	03 3f ff cc 	sethi  %hi(0xffff3000), %g1
     768:	92 02 00 09 	add  %o0, %o1, %o1
     76c:	91 2a 60 02 	sll  %o1, 2, %o0
     770:	90 02 00 01 	add  %o0, %g1, %o0
     774:	82 13 c0 00 	mov  %o7, %g1
     778:	40 00 01 f6 	call  f50 <__ajit_load_word_mmu_bypass__>
     77c:	9e 10 40 00 	mov  %g1, %o7

00000780 <writeInterruptControlRegister>:
     780:	90 02 00 08 	add  %o0, %o0, %o0
     784:	03 3f ff cc 	sethi  %hi(0xffff3000), %g1
     788:	92 02 00 09 	add  %o0, %o1, %o1
     78c:	90 10 00 0a 	mov  %o2, %o0
     790:	93 2a 60 02 	sll  %o1, 2, %o1
     794:	92 02 40 01 	add  %o1, %g1, %o1
     798:	82 13 c0 00 	mov  %o7, %g1
     79c:	40 00 01 75 	call  d70 <__ajit_store_word_mmu_bypass__>
     7a0:	9e 10 40 00 	mov  %g1, %o7

000007a4 <enableInterruptController>:
     7a4:	9d e3 bf a0 	save  %sp, -96, %sp
     7a8:	90 10 00 18 	mov  %i0, %o0
     7ac:	7f ff ff ed 	call  760 <readInterruptControlRegister>
     7b0:	92 10 00 19 	mov  %i1, %o1
     7b4:	b4 12 20 01 	or  %o0, 1, %i2
     7b8:	7f ff ff f2 	call  780 <writeInterruptControlRegister>
     7bc:	81 e8 00 00 	restore 

000007c0 <disableInterruptController>:
     7c0:	9d e3 bf a0 	save  %sp, -96, %sp
     7c4:	90 10 00 18 	mov  %i0, %o0
     7c8:	7f ff ff e6 	call  760 <readInterruptControlRegister>
     7cc:	92 10 00 19 	mov  %i1, %o1
     7d0:	b4 0a 3f fe 	and  %o0, -2, %i2
     7d4:	7f ff ff eb 	call  780 <writeInterruptControlRegister>
     7d8:	81 e8 00 00 	restore 

000007dc <ajit_generic_interrupt_handler>:
     7dc:	9d e3 bf 98 	save  %sp, -104, %sp
     7e0:	90 07 bf fe 	add  %fp, -2, %o0
     7e4:	40 00 01 28 	call  c84 <ajit_get_core_and_thread_id>
     7e8:	92 07 bf ff 	add  %fp, -1, %o1
     7ec:	d0 0f bf fe 	ldub  [ %fp + -2 ], %o0
     7f0:	7f ff ff f4 	call  7c0 <disableInterruptController>
     7f4:	d2 0f bf ff 	ldub  [ %fp + -1 ], %o1
     7f8:	b1 36 20 04 	srl  %i0, 4, %i0
     7fc:	b0 0e 20 ff 	and  %i0, 0xff, %i0
     800:	82 06 3f ef 	add  %i0, -17, %g1
     804:	80 a0 60 0e 	cmp  %g1, 0xe
     808:	18 80 00 11 	bgu  84c <ajit_generic_interrupt_handler+0x70>
     80c:	d0 0f bf fe 	ldub  [ %fp + -2 ], %o0
     810:	b0 06 3f f0 	add  %i0, -16, %i0
     814:	03 00 00 44 	sethi  %hi(0x11000), %g1
     818:	b1 2e 20 02 	sll  %i0, 2, %i0
     81c:	82 10 60 64 	or  %g1, 0x64, %g1
     820:	c2 00 40 18 	ld  [ %g1 + %i0 ], %g1
     824:	80 a0 60 00 	cmp  %g1, 0
     828:	02 80 00 09 	be  84c <ajit_generic_interrupt_handler+0x70>
     82c:	01 00 00 00 	nop 
     830:	9f c0 40 00 	call  %g1
     834:	01 00 00 00 	nop 
     838:	d0 0f bf fe 	ldub  [ %fp + -2 ], %o0
     83c:	7f ff ff da 	call  7a4 <enableInterruptController>
     840:	d2 0f bf ff 	ldub  [ %fp + -1 ], %o1
     844:	81 c7 e0 08 	ret 
     848:	81 e8 00 00 	restore 
     84c:	7f ff ff d6 	call  7a4 <enableInterruptController>
     850:	d2 0f bf ff 	ldub  [ %fp + -1 ], %o1
     854:	91 d0 20 00 	ta  0
     858:	81 c7 e0 08 	ret 
     85c:	81 e8 00 00 	restore 

00000860 <enableInterrupt>:
     860:	9d e3 bf a0 	save  %sp, -96, %sp
     864:	90 10 00 18 	mov  %i0, %o0
     868:	7f ff ff be 	call  760 <readInterruptControlRegister>
     86c:	92 10 00 19 	mov  %i1, %o1
     870:	82 10 20 01 	mov  1, %g1
     874:	b5 28 40 1a 	sll  %g1, %i2, %i2
     878:	b4 12 00 1a 	or  %o0, %i2, %i2
     87c:	7f ff ff c1 	call  780 <writeInterruptControlRegister>
     880:	81 e8 00 00 	restore 

00000884 <enableAllInterrupts>:
     884:	9d e3 bf a0 	save  %sp, -96, %sp
     888:	35 00 00 3f 	sethi  %hi(0xfc00), %i2
     88c:	90 10 00 18 	mov  %i0, %o0
     890:	92 10 00 19 	mov  %i1, %o1
     894:	7f ff ff b3 	call  760 <readInterruptControlRegister>
     898:	b4 16 a3 fe 	or  %i2, 0x3fe, %i2
     89c:	b4 12 00 1a 	or  %o0, %i2, %i2
     8a0:	7f ff ff b8 	call  780 <writeInterruptControlRegister>
     8a4:	81 e8 00 00 	restore 

000008a8 <enableInterruptControllerAndAllInterrupts>:
     8a8:	15 00 00 3f 	sethi  %hi(0xfc00), %o2
     8ac:	94 12 a3 ff 	or  %o2, 0x3ff, %o2	! ffff <__sparc_get_pc_thunk.l7+0x5d5b>
     8b0:	82 13 c0 00 	mov  %o7, %g1
     8b4:	7f ff ff b3 	call  780 <writeInterruptControlRegister>
     8b8:	9e 10 40 00 	mov  %g1, %o7

000008bc <setInterruptMask>:
     8bc:	9d e3 bf a0 	save  %sp, -96, %sp
     8c0:	90 10 00 18 	mov  %i0, %o0
     8c4:	7f ff ff a7 	call  760 <readInterruptControlRegister>
     8c8:	92 10 00 19 	mov  %i1, %o1
     8cc:	03 3f ff c0 	sethi  %hi(0xffff0000), %g1
     8d0:	05 00 00 3f 	sethi  %hi(0xfc00), %g2
     8d4:	82 10 60 01 	or  %g1, 1, %g1
     8d8:	84 10 a3 fe 	or  %g2, 0x3fe, %g2
     8dc:	90 0a 00 01 	and  %o0, %g1, %o0
     8e0:	b4 0e 80 02 	and  %i2, %g2, %i2
     8e4:	b4 12 00 1a 	or  %o0, %i2, %i2
     8e8:	7f ff ff a6 	call  780 <writeInterruptControlRegister>
     8ec:	81 e8 00 00 	restore 

000008f0 <disableInterrupt>:
     8f0:	9d e3 bf a0 	save  %sp, -96, %sp
     8f4:	90 10 00 18 	mov  %i0, %o0
     8f8:	7f ff ff 9a 	call  760 <readInterruptControlRegister>
     8fc:	92 10 00 19 	mov  %i1, %o1
     900:	82 10 20 01 	mov  1, %g1
     904:	b5 28 40 1a 	sll  %g1, %i2, %i2
     908:	b4 2a 00 1a 	andn  %o0, %i2, %i2
     90c:	7f ff ff 9d 	call  780 <writeInterruptControlRegister>
     910:	81 e8 00 00 	restore 
     914:	00 00 0d 8c 	unimp  0xd8c
     918:	00 00 0d c4 	unimp  0xdc4
     91c:	00 00 0d d0 	unimp  0xdd0
     920:	00 00 0d dc 	unimp  0xddc
     924:	00 00 0d e8 	unimp  0xde8
     928:	00 00 0d f4 	unimp  0xdf4
     92c:	00 00 0e 00 	unimp  0xe00
     930:	00 00 0e 0c 	unimp  0xe0c
     934:	00 00 0e 18 	unimp  0xe18
     938:	00 00 0e 24 	unimp  0xe24
     93c:	00 00 0e 30 	unimp  0xe30
     940:	00 00 0e 3c 	unimp  0xe3c
     944:	00 00 0e 48 	unimp  0xe48
     948:	00 00 0e 54 	unimp  0xe54
     94c:	00 00 0d ac 	unimp  0xdac
     950:	00 00 0d b8 	unimp  0xdb8
     954:	00 00 0e 70 	unimp  0xe70
     958:	00 00 0e a8 	unimp  0xea8
     95c:	00 00 0e b4 	unimp  0xeb4
     960:	00 00 0e c0 	unimp  0xec0
     964:	00 00 0e cc 	unimp  0xecc
     968:	00 00 0e d8 	unimp  0xed8
     96c:	00 00 0e e4 	unimp  0xee4
     970:	00 00 0e f0 	unimp  0xef0
     974:	00 00 0e fc 	unimp  0xefc
     978:	00 00 0f 08 	unimp  0xf08
     97c:	00 00 0f 14 	unimp  0xf14
     980:	00 00 0f 20 	unimp  0xf20
     984:	00 00 0f 2c 	unimp  0xf2c
     988:	00 00 0f 38 	unimp  0xf38
     98c:	00 00 0e 90 	unimp  0xe90
     990:	00 00 0e 9c 	unimp  0xe9c

00000994 <__ajit_clear_all_gp_registers__>:
     994:	82 10 00 00 	mov  %g0, %g1
     998:	84 10 00 00 	mov  %g0, %g2
     99c:	86 10 00 00 	mov  %g0, %g3
     9a0:	88 10 00 00 	mov  %g0, %g4
     9a4:	8a 10 00 00 	mov  %g0, %g5
     9a8:	8c 10 00 00 	mov  %g0, %g6
     9ac:	8e 10 00 00 	mov  %g0, %g7
     9b0:	b0 10 00 00 	mov  %g0, %i0
     9b4:	b2 10 00 00 	mov  %g0, %i1
     9b8:	b4 10 00 00 	mov  %g0, %i2
     9bc:	b6 10 00 00 	mov  %g0, %i3
     9c0:	b8 10 00 00 	mov  %g0, %i4
     9c4:	ba 10 00 00 	mov  %g0, %i5
     9c8:	bc 10 00 00 	mov  %g0, %fp
     9cc:	be 10 00 00 	mov  %g0, %i7
     9d0:	a0 10 00 00 	mov  %g0, %l0
     9d4:	a2 10 00 00 	mov  %g0, %l1
     9d8:	a4 10 00 00 	mov  %g0, %l2
     9dc:	a6 10 00 00 	mov  %g0, %l3
     9e0:	a8 10 00 00 	mov  %g0, %l4
     9e4:	aa 10 00 00 	mov  %g0, %l5
     9e8:	ac 10 00 00 	mov  %g0, %l6
     9ec:	ae 10 00 00 	mov  %g0, %l7
     9f0:	90 10 00 00 	mov  %g0, %o0
     9f4:	92 10 00 00 	mov  %g0, %o1
     9f8:	94 10 00 00 	mov  %g0, %o2
     9fc:	96 10 00 00 	mov  %g0, %o3
     a00:	98 10 00 00 	mov  %g0, %o4
     a04:	9a 10 00 00 	mov  %g0, %o5
     a08:	9c 10 00 00 	mov  %g0, %sp
     a0c:	9e 10 00 00 	mov  %g0, %o7
     a10:	82 10 20 07 	mov  7, %g1
     a14:	81 e0 00 00 	save 
     a18:	a0 10 00 00 	mov  %g0, %l0
     a1c:	a2 10 00 00 	mov  %g0, %l1
     a20:	a4 10 00 00 	mov  %g0, %l2
     a24:	a6 10 00 00 	mov  %g0, %l3
     a28:	a8 10 00 00 	mov  %g0, %l4
     a2c:	aa 10 00 00 	mov  %g0, %l5
     a30:	ac 10 00 00 	mov  %g0, %l6
     a34:	ae 10 00 00 	mov  %g0, %l7
     a38:	90 10 00 00 	mov  %g0, %o0
     a3c:	92 10 00 00 	mov  %g0, %o1
     a40:	94 10 00 00 	mov  %g0, %o2
     a44:	96 10 00 00 	mov  %g0, %o3
     a48:	98 10 00 00 	mov  %g0, %o4
     a4c:	9a 10 00 00 	mov  %g0, %o5
     a50:	9c 10 00 00 	mov  %g0, %sp
     a54:	9e 10 00 00 	mov  %g0, %o7
     a58:	82 80 7f ff 	addcc  %g1, -1, %g1
     a5c:	12 bf ff ee 	bne  a14 <__ajit_clear_all_gp_registers__+0x80>
     a60:	01 00 00 00 	nop 
     a64:	82 10 20 07 	mov  7, %g1	! 7 <_start+0x7>
     a68:	81 e8 00 00 	restore 
     a6c:	82 80 7f ff 	addcc  %g1, -1, %g1
     a70:	12 bf ff fe 	bne  a68 <__ajit_clear_all_gp_registers__+0xd4>
     a74:	01 00 00 00 	nop 
     a78:	81 c3 e0 08 	retl 
     a7c:	01 00 00 00 	nop 

00000a80 <ajit_read_from_scratch_pad>:
     a80:	80 a2 20 1f 	cmp  %o0, 0x1f
     a84:	18 80 00 05 	bgu  a98 <ajit_read_from_scratch_pad+0x18>
     a88:	82 10 20 00 	clr  %g1
     a8c:	91 2a 20 02 	sll  %o0, 2, %o0
     a90:	03 3f ff cb 	sethi  %hi(0xffff2c00), %g1
     a94:	c2 02 00 01 	ld  [ %o0 + %g1 ], %g1
     a98:	81 c3 e0 08 	retl 
     a9c:	90 10 00 01 	mov  %g1, %o0

00000aa0 <ajit_write_to_scratch_pad>:
     aa0:	80 a2 20 1f 	cmp  %o0, 0x1f
     aa4:	18 80 00 04 	bgu  ab4 <ajit_write_to_scratch_pad+0x14>
     aa8:	91 2a 20 02 	sll  %o0, 2, %o0
     aac:	03 3f ff cb 	sethi  %hi(0xffff2c00), %g1
     ab0:	d2 22 00 01 	st  %o1, [ %o0 + %g1 ]
     ab4:	81 c3 e0 08 	retl 
     ab8:	01 00 00 00 	nop 

00000abc <ajit_configure_i2c_master>:
     abc:	81 80 20 00 	mov  %g0, %y
     ac0:	01 00 00 00 	nop 
     ac4:	01 00 00 00 	nop 
     ac8:	01 00 00 00 	nop 
     acc:	92 72 00 09 	udiv  %o0, %o1, %o1
     ad0:	03 3f ff cd 	sethi  %hi(0xffff3400), %g1
     ad4:	93 32 60 02 	srl  %o1, 2, %o1
     ad8:	82 10 62 00 	or  %g1, 0x200, %g1
     adc:	90 10 20 00 	clr  %o0
     ae0:	81 c3 e0 08 	retl 
     ae4:	d2 20 40 00 	st  %o1, [ %g1 ]

00000ae8 <ajit_i2c_master_is_ready>:
     ae8:	03 3f ff cd 	sethi  %hi(0xffff3400), %g1
     aec:	82 10 62 08 	or  %g1, 0x208, %g1	! ffff3608 <allocatedLocks+0xfffe2418>
     af0:	d0 00 40 00 	ld  [ %g1 ], %o0
     af4:	91 32 20 0a 	srl  %o0, 0xa, %o0
     af8:	81 c3 e0 08 	retl 
     afc:	90 0a 20 01 	and  %o0, 1, %o0

00000b00 <ajit_i2c_master_write_command>:
     b00:	03 3f ff cd 	sethi  %hi(0xffff3400), %g1
     b04:	82 10 62 04 	or  %g1, 0x204, %g1	! ffff3604 <allocatedLocks+0xfffe2414>
     b08:	81 c3 e0 08 	retl 
     b0c:	d0 20 40 00 	st  %o0, [ %g1 ]

00000b10 <ajit_i2c_master_read_status>:
     b10:	03 3f ff cd 	sethi  %hi(0xffff3400), %g1
     b14:	82 10 62 08 	or  %g1, 0x208, %g1	! ffff3608 <allocatedLocks+0xfffe2418>
     b18:	81 c3 e0 08 	retl 
     b1c:	d0 00 40 00 	ld  [ %g1 ], %o0

00000b20 <ajit_i2c_master_access_slave_memory_device>:
     b20:	03 3f ff cd 	sethi  %hi(0xffff3400), %g1
     b24:	84 10 62 08 	or  %g1, 0x208, %g2	! ffff3608 <allocatedLocks+0xfffe2418>
     b28:	c4 00 80 00 	ld  [ %g2 ], %g2
     b2c:	80 88 a4 00 	btst  0x400, %g2
     b30:	02 80 00 11 	be  b74 <ajit_i2c_master_access_slave_memory_device+0x54>
     b34:	82 10 62 04 	or  %g1, 0x204, %g1
     b38:	91 2a 20 10 	sll  %o0, 0x10, %o0
     b3c:	87 2a 60 1f 	sll  %o1, 0x1f, %g3
     b40:	09 18 00 00 	sethi  %hi(0x60000000), %g4
     b44:	95 2a a0 08 	sll  %o2, 8, %o2
     b48:	90 12 00 04 	or  %o0, %g4, %o0
     b4c:	90 12 00 03 	or  %o0, %g3, %o0
     b50:	94 12 00 0a 	or  %o0, %o2, %o2
     b54:	96 12 80 0b 	or  %o2, %o3, %o3
     b58:	d6 20 40 00 	st  %o3, [ %g1 ]
     b5c:	80 a2 60 00 	cmp  %o1, 0
     b60:	02 80 00 03 	be  b6c <ajit_i2c_master_access_slave_memory_device+0x4c>
     b64:	90 10 20 00 	clr  %o0
     b68:	90 10 00 02 	mov  %g2, %o0
     b6c:	81 c3 e0 08 	retl 
     b70:	90 0a 20 ff 	and  %o0, 0xff, %o0
     b74:	30 80 00 00 	b,a   b74 <ajit_i2c_master_access_slave_memory_device+0x54>

00000b78 <__ajit_read_core_thread_id_word__>:
     b78:	91 47 40 00 	rd  %asr29, %o0
     b7c:	81 c3 e0 08 	retl 
     b80:	01 00 00 00 	nop 

00000b84 <ajit_read_thread_descriptor>:
     b84:	9d e3 bf a0 	save  %sp, -96, %sp
     b88:	83 47 00 00 	rd  %asr28, %g1
     b8c:	87 30 60 1e 	srl  %g1, 0x1e, %g3
     b90:	80 a0 e0 03 	cmp  %g3, 3
     b94:	02 80 00 0a 	be  bbc <ajit_read_thread_descriptor+0x38>
     b98:	84 10 20 20 	mov  0x20, %g2
     b9c:	80 a0 e0 02 	cmp  %g3, 2
     ba0:	02 80 00 07 	be  bbc <ajit_read_thread_descriptor+0x38>
     ba4:	84 10 20 10 	mov  0x10, %g2
     ba8:	86 18 e0 01 	xor  %g3, 1, %g3
     bac:	80 a0 00 03 	cmp  %g0, %g3
     bb0:	84 60 20 00 	subx  %g0, 0, %g2
     bb4:	84 08 a0 fc 	and  %g2, 0xfc, %g2
     bb8:	84 00 a0 08 	add  %g2, 8, %g2
     bbc:	87 30 60 1c 	srl  %g1, 0x1c, %g3
     bc0:	86 08 e0 03 	and  %g3, 3, %g3
     bc4:	80 a0 e0 03 	cmp  %g3, 3
     bc8:	02 80 00 2d 	be  c7c <ajit_read_thread_descriptor+0xf8>
     bcc:	c4 2e 00 00 	stb  %g2, [ %i0 ]
     bd0:	80 a0 e0 02 	cmp  %g3, 2
     bd4:	02 80 00 07 	be  bf0 <ajit_read_thread_descriptor+0x6c>
     bd8:	84 10 20 10 	mov  0x10, %g2
     bdc:	86 18 e0 01 	xor  %g3, 1, %g3
     be0:	80 a0 00 03 	cmp  %g0, %g3
     be4:	84 60 20 00 	subx  %g0, 0, %g2
     be8:	84 08 a0 fc 	and  %g2, 0xfc, %g2
     bec:	84 00 a0 08 	add  %g2, 8, %g2
     bf0:	99 30 60 1a 	srl  %g1, 0x1a, %o4
     bf4:	9b 30 60 18 	srl  %g1, 0x18, %o5
     bf8:	9f 30 60 14 	srl  %g1, 0x14, %o7
     bfc:	b3 30 60 10 	srl  %g1, 0x10, %i1
     c00:	b5 30 60 0c 	srl  %g1, 0xc, %i2
     c04:	b7 30 60 09 	srl  %g1, 9, %i3
     c08:	b9 30 60 07 	srl  %g1, 7, %i4
     c0c:	bb 30 60 05 	srl  %g1, 5, %i5
     c10:	89 30 60 02 	srl  %g1, 2, %g4
     c14:	87 30 60 01 	srl  %g1, 1, %g3
     c18:	98 0b 20 03 	and  %o4, 3, %o4
     c1c:	9a 0b 60 03 	and  %o5, 3, %o5
     c20:	9e 0b e0 0f 	and  %o7, 0xf, %o7
     c24:	b2 0e 60 0f 	and  %i1, 0xf, %i1
     c28:	b4 0e a0 0f 	and  %i2, 0xf, %i2
     c2c:	b6 0e e0 07 	and  %i3, 7, %i3
     c30:	b8 0f 20 03 	and  %i4, 3, %i4
     c34:	ba 0f 60 03 	and  %i5, 3, %i5
     c38:	88 09 20 01 	and  %g4, 1, %g4
     c3c:	86 08 e0 01 	and  %g3, 1, %g3
     c40:	82 08 60 01 	and  %g1, 1, %g1
     c44:	c4 2e 20 01 	stb  %g2, [ %i0 + 1 ]
     c48:	d8 2e 20 02 	stb  %o4, [ %i0 + 2 ]
     c4c:	da 2e 20 03 	stb  %o5, [ %i0 + 3 ]
     c50:	de 2e 20 04 	stb  %o7, [ %i0 + 4 ]
     c54:	f2 2e 20 05 	stb  %i1, [ %i0 + 5 ]
     c58:	f4 2e 20 06 	stb  %i2, [ %i0 + 6 ]
     c5c:	f6 2e 20 07 	stb  %i3, [ %i0 + 7 ]
     c60:	f8 2e 20 08 	stb  %i4, [ %i0 + 8 ]
     c64:	fa 2e 20 09 	stb  %i5, [ %i0 + 9 ]
     c68:	c8 2e 20 0a 	stb  %g4, [ %i0 + 0xa ]
     c6c:	c6 2e 20 0b 	stb  %g3, [ %i0 + 0xb ]
     c70:	c2 2e 20 0c 	stb  %g1, [ %i0 + 0xc ]
     c74:	81 c7 e0 08 	ret 
     c78:	81 e8 00 00 	restore 
     c7c:	10 bf ff dd 	b  bf0 <ajit_read_thread_descriptor+0x6c>
     c80:	84 10 20 20 	mov  0x20, %g2

00000c84 <ajit_get_core_and_thread_id>:
     c84:	83 47 40 00 	rd  %asr29, %g1
     c88:	85 30 60 08 	srl  %g1, 8, %g2
     c8c:	c4 2a 00 00 	stb  %g2, [ %o0 ]
     c90:	81 c3 e0 08 	retl 
     c94:	c2 2a 40 00 	stb  %g1, [ %o1 ]

00000c98 <__ajit_read_cycle_count_register_high__>:
     c98:	91 47 80 00 	rd  %asr30, %o0
     c9c:	81 c3 e0 08 	retl 
     ca0:	01 00 00 00 	nop 

00000ca4 <__ajit_read_cycle_count_register_low__>:
     ca4:	91 47 c0 00 	rd  %asr31, %o0
     ca8:	81 c3 e0 08 	retl 
     cac:	01 00 00 00 	nop 

00000cb0 <__ajit_get_clock_time>:
     cb0:	99 47 c0 00 	rd  %asr31, %o4
     cb4:	83 47 80 00 	rd  %asr30, %g1
     cb8:	86 10 20 00 	clr  %g3
     cbc:	9a 10 00 0c 	mov  %o4, %o5
     cc0:	98 10 20 00 	clr  %o4
     cc4:	86 10 c0 0d 	or  %g3, %o5, %g3
     cc8:	84 10 40 0c 	or  %g1, %o4, %g2
     ccc:	92 10 00 03 	mov  %g3, %o1
     cd0:	81 c3 e0 08 	retl 
     cd4:	90 10 00 02 	mov  %g2, %o0

00000cd8 <__ajit_sleep__>:
     cd8:	95 47 c0 00 	rd  %asr31, %o2
     cdc:	83 47 80 00 	rd  %asr30, %g1
     ce0:	9a 10 20 00 	clr  %o5
     ce4:	96 10 00 0a 	mov  %o2, %o3
     ce8:	9a 13 40 0b 	or  %o5, %o3, %o5
     cec:	92 83 40 08 	addcc  %o5, %o0, %o1
     cf0:	94 10 20 00 	clr  %o2
     cf4:	98 10 40 0a 	or  %g1, %o2, %o4
     cf8:	90 43 20 00 	addx  %o4, 0, %o0
     cfc:	80 a2 00 0c 	cmp  %o0, %o4
     d00:	08 80 00 0c 	bleu  d30 <__ajit_sleep__+0x58>
     d04:	01 00 00 00 	nop 
     d08:	99 47 c0 00 	rd  %asr31, %o4
     d0c:	83 47 80 00 	rd  %asr30, %g1
     d10:	86 10 20 00 	clr  %g3
     d14:	9a 10 00 0c 	mov  %o4, %o5
     d18:	98 10 20 00 	clr  %o4
     d1c:	98 10 40 0c 	or  %g1, %o4, %o4
     d20:	80 a2 00 0c 	cmp  %o0, %o4
     d24:	18 bf ff f9 	bgu  d08 <__ajit_sleep__+0x30>
     d28:	9a 10 c0 0d 	or  %g3, %o5, %o5
     d2c:	80 a2 00 0c 	cmp  %o0, %o4
     d30:	12 80 00 04 	bne  d40 <__ajit_sleep__+0x68>
     d34:	80 a2 40 0d 	cmp  %o1, %o5
     d38:	18 bf ff f4 	bgu  d08 <__ajit_sleep__+0x30>
     d3c:	01 00 00 00 	nop 
     d40:	81 c3 e0 08 	retl 
     d44:	01 00 00 00 	nop 

00000d48 <__ajit_set_mmu_default_cacheable_bit__>:
     d48:	80 a0 00 08 	cmp  %g0, %o0
     d4c:	84 10 20 00 	clr  %g2
     d50:	82 40 20 00 	addx  %g0, 0, %g1
     d54:	83 28 60 08 	sll  %g1, 8, %g1
     d58:	c2 a0 80 80 	sta  %g1, [ %g2 ] #ASI_N
     d5c:	81 c3 e0 08 	retl 
     d60:	01 00 00 00 	nop 

00000d64 <__ajit_store_word_mmu_reg__>:
     d64:	d0 a2 40 80 	sta  %o0, [ %o1 ] #ASI_N
     d68:	81 c3 e0 08 	retl 
     d6c:	01 00 00 00 	nop 

00000d70 <__ajit_store_word_mmu_bypass__>:
     d70:	d0 a2 44 00 	sta  %o0, [ %o1 ] #ASI_SCRATCHPAD
     d74:	81 c3 e0 08 	retl 
     d78:	01 00 00 00 	nop 

00000d7c <__ajit_store_word_to_physical_address__>:
     d7c:	86 0a 60 0f 	and  %o1, 0xf, %g3
     d80:	80 a0 e0 0f 	cmp  %g3, 0xf
     d84:	08 80 00 05 	bleu  d98 <__ajit_store_word_to_physical_address__+0x1c>
     d88:	83 28 e0 02 	sll  %g3, 2, %g1
     d8c:	d0 a2 84 00 	sta  %o0, [ %o2 ] #ASI_SCRATCHPAD
     d90:	81 c3 e0 08 	retl 
     d94:	01 00 00 00 	nop 
     d98:	05 00 00 02 	sethi  %hi(0x800), %g2
     d9c:	84 10 a1 14 	or  %g2, 0x114, %g2	! 914 <disableInterrupt+0x24>
     da0:	c2 00 80 01 	ld  [ %g2 + %g1 ], %g1
     da4:	81 c0 40 00 	jmp  %g1
     da8:	01 00 00 00 	nop 
     dac:	d0 a2 85 c0 	sta  %o0, [ %o2 ] (46)
     db0:	81 c3 e0 08 	retl 
     db4:	01 00 00 00 	nop 
     db8:	d0 a2 85 e0 	sta  %o0, [ %o2 ] (47)
     dbc:	81 c3 e0 08 	retl 
     dc0:	01 00 00 00 	nop 
     dc4:	d0 a2 84 20 	sta  %o0, [ %o2 ] #ASI_MMU
     dc8:	81 c3 e0 08 	retl 
     dcc:	01 00 00 00 	nop 
     dd0:	d0 a2 84 40 	sta  %o0, [ %o2 ] (34)
     dd4:	81 c3 e0 08 	retl 
     dd8:	01 00 00 00 	nop 
     ddc:	d0 a2 84 60 	sta  %o0, [ %o2 ] #ASI_BLK_INIT_QUAD_LDD_AIUS
     de0:	81 c3 e0 08 	retl 
     de4:	01 00 00 00 	nop 
     de8:	d0 a2 84 80 	sta  %o0, [ %o2 ] #ASI_NUCLEUS_QUAD_LDD
     dec:	81 c3 e0 08 	retl 
     df0:	01 00 00 00 	nop 
     df4:	d0 a2 84 a0 	sta  %o0, [ %o2 ] #ASI_QUEUE
     df8:	81 c3 e0 08 	retl 
     dfc:	01 00 00 00 	nop 
     e00:	d0 a2 84 c0 	sta  %o0, [ %o2 ] #ASI_QUAD_LDD_PHYS_4V
     e04:	81 c3 e0 08 	retl 
     e08:	01 00 00 00 	nop 
     e0c:	d0 a2 84 e0 	sta  %o0, [ %o2 ] (39)
     e10:	81 c3 e0 08 	retl 
     e14:	01 00 00 00 	nop 
     e18:	d0 a2 85 00 	sta  %o0, [ %o2 ] (40)
     e1c:	81 c3 e0 08 	retl 
     e20:	01 00 00 00 	nop 
     e24:	d0 a2 85 20 	sta  %o0, [ %o2 ] (41)
     e28:	81 c3 e0 08 	retl 
     e2c:	01 00 00 00 	nop 
     e30:	d0 a2 85 40 	sta  %o0, [ %o2 ] (42)
     e34:	81 c3 e0 08 	retl 
     e38:	01 00 00 00 	nop 
     e3c:	d0 a2 85 60 	sta  %o0, [ %o2 ] (43)
     e40:	81 c3 e0 08 	retl 
     e44:	01 00 00 00 	nop 
     e48:	d0 a2 85 80 	sta  %o0, [ %o2 ] #ASI_NUCLEUS_QUAD_LDD_L
     e4c:	81 c3 e0 08 	retl 
     e50:	01 00 00 00 	nop 
     e54:	d0 a2 85 a0 	sta  %o0, [ %o2 ] (45)
     e58:	81 c3 e0 08 	retl 
     e5c:	01 00 00 00 	nop 

00000e60 <__ajit_load_word_from_physical_address__>:
     e60:	86 0a 20 0f 	and  %o0, 0xf, %g3
     e64:	80 a0 e0 0f 	cmp  %g3, 0xf
     e68:	08 80 00 05 	bleu  e7c <__ajit_load_word_from_physical_address__+0x1c>
     e6c:	83 28 e0 02 	sll  %g3, 2, %g1
     e70:	d0 82 44 00 	lda  [ %o1 ] #ASI_SCRATCHPAD, %o0
     e74:	81 c3 e0 08 	retl 
     e78:	01 00 00 00 	nop 
     e7c:	05 00 00 02 	sethi  %hi(0x800), %g2
     e80:	84 10 a1 54 	or  %g2, 0x154, %g2	! 954 <disableInterrupt+0x64>
     e84:	c2 00 80 01 	ld  [ %g2 + %g1 ], %g1
     e88:	81 c0 40 00 	jmp  %g1
     e8c:	01 00 00 00 	nop 
     e90:	d0 82 45 c0 	lda  [ %o1 ] (46), %o0
     e94:	81 c3 e0 08 	retl 
     e98:	01 00 00 00 	nop 
     e9c:	d0 82 45 e0 	lda  [ %o1 ] (47), %o0
     ea0:	81 c3 e0 08 	retl 
     ea4:	01 00 00 00 	nop 
     ea8:	d0 82 44 20 	lda  [ %o1 ] #ASI_MMU, %o0
     eac:	81 c3 e0 08 	retl 
     eb0:	01 00 00 00 	nop 
     eb4:	d0 82 44 40 	lda  [ %o1 ] (34), %o0
     eb8:	81 c3 e0 08 	retl 
     ebc:	01 00 00 00 	nop 
     ec0:	d0 82 44 60 	lda  [ %o1 ] #ASI_BLK_INIT_QUAD_LDD_AIUS, %o0
     ec4:	81 c3 e0 08 	retl 
     ec8:	01 00 00 00 	nop 
     ecc:	d0 82 44 80 	lda  [ %o1 ] #ASI_NUCLEUS_QUAD_LDD, %o0
     ed0:	81 c3 e0 08 	retl 
     ed4:	01 00 00 00 	nop 
     ed8:	d0 82 44 a0 	lda  [ %o1 ] #ASI_QUEUE, %o0
     edc:	81 c3 e0 08 	retl 
     ee0:	01 00 00 00 	nop 
     ee4:	d0 82 44 c0 	lda  [ %o1 ] #ASI_QUAD_LDD_PHYS_4V, %o0
     ee8:	81 c3 e0 08 	retl 
     eec:	01 00 00 00 	nop 
     ef0:	d0 82 44 e0 	lda  [ %o1 ] (39), %o0
     ef4:	81 c3 e0 08 	retl 
     ef8:	01 00 00 00 	nop 
     efc:	d0 82 45 00 	lda  [ %o1 ] (40), %o0
     f00:	81 c3 e0 08 	retl 
     f04:	01 00 00 00 	nop 
     f08:	d0 82 45 20 	lda  [ %o1 ] (41), %o0
     f0c:	81 c3 e0 08 	retl 
     f10:	01 00 00 00 	nop 
     f14:	d0 82 45 40 	lda  [ %o1 ] (42), %o0
     f18:	81 c3 e0 08 	retl 
     f1c:	01 00 00 00 	nop 
     f20:	d0 82 45 60 	lda  [ %o1 ] (43), %o0
     f24:	81 c3 e0 08 	retl 
     f28:	01 00 00 00 	nop 
     f2c:	d0 82 45 80 	lda  [ %o1 ] #ASI_NUCLEUS_QUAD_LDD_L, %o0
     f30:	81 c3 e0 08 	retl 
     f34:	01 00 00 00 	nop 
     f38:	d0 82 45 a0 	lda  [ %o1 ] (45), %o0
     f3c:	81 c3 e0 08 	retl 
     f40:	01 00 00 00 	nop 

00000f44 <__ajit_load_word_mmu_reg__>:
     f44:	d0 82 00 80 	lda  [ %o0 ] #ASI_N, %o0
     f48:	81 c3 e0 08 	retl 
     f4c:	01 00 00 00 	nop 

00000f50 <__ajit_load_word_mmu_bypass__>:
     f50:	d0 82 04 00 	lda  [ %o0 ] #ASI_SCRATCHPAD, %o0
     f54:	81 c3 e0 08 	retl 
     f58:	01 00 00 00 	nop 

00000f5c <__ajit_flush_icache__>:
     f5c:	81 d8 20 00 	flush  %g0
     f60:	81 c3 e0 08 	retl 
     f64:	01 00 00 00 	nop 

00000f68 <__ajit_flush_dcache__>:
     f68:	c0 a0 02 60 	sta  %g0, [ %g0 ] (19)
     f6c:	81 c3 e0 08 	retl 
     f70:	01 00 00 00 	nop 

00000f74 <__ajit_write_timer_control_register_via_bypass__>:
     f74:	03 3f ff cc 	sethi  %hi(0xffff3000), %g1
     f78:	82 10 61 00 	or  %g1, 0x100, %g1	! ffff3100 <allocatedLocks+0xfffe1f10>
     f7c:	d0 a0 44 00 	sta  %o0, [ %g1 ] #ASI_SCRATCHPAD
     f80:	81 c3 e0 08 	retl 
     f84:	01 00 00 00 	nop 

00000f88 <__ajit_read_timer_control_register_via_bypass__>:
     f88:	11 3f ff cc 	sethi  %hi(0xffff3000), %o0
     f8c:	90 12 21 00 	or  %o0, 0x100, %o0	! ffff3100 <allocatedLocks+0xfffe1f10>
     f90:	d0 82 04 00 	lda  [ %o0 ] #ASI_SCRATCHPAD, %o0
     f94:	81 c3 e0 08 	retl 
     f98:	01 00 00 00 	nop 

00000f9c <__ajit_write_timer_control_register_via_vmap__>:
     f9c:	03 3f ff cc 	sethi  %hi(0xffff3000), %g1
     fa0:	82 10 61 00 	or  %g1, 0x100, %g1	! ffff3100 <allocatedLocks+0xfffe1f10>
     fa4:	81 c3 e0 08 	retl 
     fa8:	d0 20 40 00 	st  %o0, [ %g1 ]

00000fac <__ajit_read_timer_control_register_via_vmap__>:
     fac:	03 3f ff cc 	sethi  %hi(0xffff3000), %g1
     fb0:	82 10 61 00 	or  %g1, 0x100, %g1	! ffff3100 <allocatedLocks+0xfffe1f10>
     fb4:	81 c3 e0 08 	retl 
     fb8:	d0 00 40 00 	ld  [ %g1 ], %o0

00000fbc <__ajit_write_serial_control_register_via_bypass__>:
     fbc:	03 3f ff cc 	sethi  %hi(0xffff3000), %g1
     fc0:	82 10 62 00 	or  %g1, 0x200, %g1	! ffff3200 <allocatedLocks+0xfffe2010>
     fc4:	d0 a0 44 00 	sta  %o0, [ %g1 ] #ASI_SCRATCHPAD
     fc8:	81 c3 e0 08 	retl 
     fcc:	01 00 00 00 	nop 

00000fd0 <__ajit_read_serial_control_register_via_bypass__>:
     fd0:	11 3f ff cc 	sethi  %hi(0xffff3000), %o0
     fd4:	90 12 22 00 	or  %o0, 0x200, %o0	! ffff3200 <allocatedLocks+0xfffe2010>
     fd8:	d0 82 04 00 	lda  [ %o0 ] #ASI_SCRATCHPAD, %o0
     fdc:	81 c3 e0 08 	retl 
     fe0:	01 00 00 00 	nop 

00000fe4 <__ajit_write_serial_tx_register_via_bypass__>:
     fe4:	03 3f ff cc 	sethi  %hi(0xffff3000), %g1
     fe8:	82 10 62 04 	or  %g1, 0x204, %g1	! ffff3204 <allocatedLocks+0xfffe2014>
     fec:	d0 a8 44 00 	stba  %o0, [ %g1 ] #ASI_SCRATCHPAD
     ff0:	81 c3 e0 08 	retl 
     ff4:	01 00 00 00 	nop 

00000ff8 <__ajit_read_serial_tx_register_via_bypass__>:
     ff8:	11 3f ff cc 	sethi  %hi(0xffff3000), %o0
     ffc:	90 12 22 04 	or  %o0, 0x204, %o0	! ffff3204 <allocatedLocks+0xfffe2014>
    1000:	d0 8a 04 00 	lduba  [ %o0 ] #ASI_SCRATCHPAD, %o0
    1004:	81 c3 e0 08 	retl 
    1008:	90 0a 20 ff 	and  %o0, 0xff, %o0

0000100c <__ajit_read_serial_rx_register_via_bypass__>:
    100c:	11 3f ff cc 	sethi  %hi(0xffff3000), %o0
    1010:	90 12 22 08 	or  %o0, 0x208, %o0	! ffff3208 <allocatedLocks+0xfffe2018>
    1014:	d0 8a 04 00 	lduba  [ %o0 ] #ASI_SCRATCHPAD, %o0
    1018:	81 c3 e0 08 	retl 
    101c:	90 0a 20 ff 	and  %o0, 0xff, %o0

00001020 <__ajit_write_serial_baud_limit_register_via_bypass__>:
    1020:	03 3f ff cc 	sethi  %hi(0xffff3000), %g1
    1024:	82 10 62 0c 	or  %g1, 0x20c, %g1	! ffff320c <allocatedLocks+0xfffe201c>
    1028:	d0 a0 44 00 	sta  %o0, [ %g1 ] #ASI_SCRATCHPAD
    102c:	81 c3 e0 08 	retl 
    1030:	01 00 00 00 	nop 

00001034 <__ajit_read_serial_baud_limit_register_via_bypass__>:
    1034:	11 3f ff cc 	sethi  %hi(0xffff3000), %o0
    1038:	90 12 22 0c 	or  %o0, 0x20c, %o0	! ffff320c <allocatedLocks+0xfffe201c>
    103c:	d0 82 04 00 	lda  [ %o0 ] #ASI_SCRATCHPAD, %o0
    1040:	81 c3 e0 08 	retl 
    1044:	01 00 00 00 	nop 

00001048 <__ajit_write_serial_baud_frequency_register_via_bypass__>:
    1048:	03 3f ff cc 	sethi  %hi(0xffff3000), %g1
    104c:	82 10 62 10 	or  %g1, 0x210, %g1	! ffff3210 <allocatedLocks+0xfffe2020>
    1050:	d0 a0 44 00 	sta  %o0, [ %g1 ] #ASI_SCRATCHPAD
    1054:	81 c3 e0 08 	retl 
    1058:	01 00 00 00 	nop 

0000105c <__ajit_read_serial_baud_frequency_register_via_bypass__>:
    105c:	11 3f ff cc 	sethi  %hi(0xffff3000), %o0
    1060:	90 12 22 10 	or  %o0, 0x210, %o0	! ffff3210 <allocatedLocks+0xfffe2020>
    1064:	d0 82 04 00 	lda  [ %o0 ] #ASI_SCRATCHPAD, %o0
    1068:	81 c3 e0 08 	retl 
    106c:	01 00 00 00 	nop 

00001070 <__ajit_serial_set_baudrate_via_bypass__>:
    1070:	91 2a 20 04 	sll  %o0, 4, %o0
    1074:	80 a2 00 09 	cmp  %o0, %o1
    1078:	1a 80 00 25 	bcc  110c <__ajit_serial_set_baudrate_via_bypass__+0x9c>
    107c:	03 3f ff cc 	sethi  %hi(0xffff3000), %g1
    1080:	80 a2 20 00 	cmp  %o0, 0
    1084:	22 80 00 23 	be,a   1110 <__ajit_serial_set_baudrate_via_bypass__+0xa0>
    1088:	84 10 20 00 	clr  %g2
    108c:	84 10 00 09 	mov  %o1, %g2
    1090:	10 80 00 03 	b  109c <__ajit_serial_set_baudrate_via_bypass__+0x2c>
    1094:	82 10 00 08 	mov  %o0, %g1
    1098:	82 10 00 03 	mov  %g3, %g1
    109c:	81 80 20 00 	mov  %g0, %y
    10a0:	01 00 00 00 	nop 
    10a4:	01 00 00 00 	nop 
    10a8:	01 00 00 00 	nop 
    10ac:	86 70 80 01 	udiv  %g2, %g1, %g3
    10b0:	86 58 c0 01 	smul  %g3, %g1, %g3
    10b4:	86 20 80 03 	sub  %g2, %g3, %g3
    10b8:	80 a0 e0 00 	cmp  %g3, 0
    10bc:	12 bf ff f7 	bne  1098 <__ajit_serial_set_baudrate_via_bypass__+0x28>
    10c0:	84 10 00 01 	mov  %g1, %g2
    10c4:	81 80 20 00 	mov  %g0, %y
    10c8:	01 00 00 00 	nop 
    10cc:	01 00 00 00 	nop 
    10d0:	01 00 00 00 	nop 
    10d4:	84 72 00 01 	udiv  %o0, %g1, %g2
    10d8:	81 80 20 00 	mov  %g0, %y
    10dc:	01 00 00 00 	nop 
    10e0:	01 00 00 00 	nop 
    10e4:	01 00 00 00 	nop 
    10e8:	86 72 40 01 	udiv  %o1, %g1, %g3
    10ec:	03 3f ff cc 	sethi  %hi(0xffff3000), %g1
    10f0:	86 20 c0 02 	sub  %g3, %g2, %g3
    10f4:	88 10 62 0c 	or  %g1, 0x20c, %g4
    10f8:	c6 a1 04 00 	sta  %g3, [ %g4 ] #ASI_SCRATCHPAD
    10fc:	82 10 62 10 	or  %g1, 0x210, %g1
    1100:	c4 a0 44 00 	sta  %g2, [ %g1 ] #ASI_SCRATCHPAD
    1104:	81 c3 e0 08 	retl 
    1108:	01 00 00 00 	nop 
    110c:	84 10 20 00 	clr  %g2	! 0 <_start>
    1110:	86 10 20 00 	clr  %g3
    1114:	88 10 62 0c 	or  %g1, 0x20c, %g4
    1118:	c6 a1 04 00 	sta  %g3, [ %g4 ] #ASI_SCRATCHPAD
    111c:	82 10 62 10 	or  %g1, 0x210, %g1
    1120:	c4 a0 44 00 	sta  %g2, [ %g1 ] #ASI_SCRATCHPAD
    1124:	81 c3 e0 08 	retl 
    1128:	01 00 00 00 	nop 

0000112c <__ajit_write_serial_control_register_via_vmap__>:
    112c:	03 3f ff cc 	sethi  %hi(0xffff3000), %g1
    1130:	82 10 62 00 	or  %g1, 0x200, %g1	! ffff3200 <allocatedLocks+0xfffe2010>
    1134:	81 c3 e0 08 	retl 
    1138:	d0 20 40 00 	st  %o0, [ %g1 ]

0000113c <__ajit_read_serial_control_register_via_vmap__>:
    113c:	03 3f ff cc 	sethi  %hi(0xffff3000), %g1
    1140:	82 10 62 00 	or  %g1, 0x200, %g1	! ffff3200 <allocatedLocks+0xfffe2010>
    1144:	81 c3 e0 08 	retl 
    1148:	d0 08 40 00 	ldub  [ %g1 ], %o0

0000114c <__ajit_write_serial_tx_register_via_vmap__>:
    114c:	03 3f ff cc 	sethi  %hi(0xffff3000), %g1
    1150:	82 10 62 04 	or  %g1, 0x204, %g1	! ffff3204 <allocatedLocks+0xfffe2014>
    1154:	81 c3 e0 08 	retl 
    1158:	d0 28 40 00 	stb  %o0, [ %g1 ]

0000115c <__ajit_read_serial_tx_register_via_vmap__>:
    115c:	03 3f ff cc 	sethi  %hi(0xffff3000), %g1
    1160:	82 10 62 04 	or  %g1, 0x204, %g1	! ffff3204 <allocatedLocks+0xfffe2014>
    1164:	81 c3 e0 08 	retl 
    1168:	d0 08 40 00 	ldub  [ %g1 ], %o0

0000116c <__ajit_read_serial_rx_register_via_vmap__>:
    116c:	03 3f ff cc 	sethi  %hi(0xffff3000), %g1
    1170:	82 10 62 08 	or  %g1, 0x208, %g1	! ffff3208 <allocatedLocks+0xfffe2018>
    1174:	81 c3 e0 08 	retl 
    1178:	d0 08 40 00 	ldub  [ %g1 ], %o0

0000117c <__ajit_serial_set_baudrate_via_vmap__>:
    117c:	91 2a 20 04 	sll  %o0, 4, %o0
    1180:	80 a2 00 09 	cmp  %o0, %o1
    1184:	1a 80 00 24 	bcc  1214 <__ajit_serial_set_baudrate_via_vmap__+0x98>
    1188:	03 3f ff cc 	sethi  %hi(0xffff3000), %g1
    118c:	80 a2 20 00 	cmp  %o0, 0
    1190:	02 80 00 22 	be  1218 <__ajit_serial_set_baudrate_via_vmap__+0x9c>
    1194:	88 10 20 00 	clr  %g4
    1198:	84 10 00 09 	mov  %o1, %g2
    119c:	10 80 00 03 	b  11a8 <__ajit_serial_set_baudrate_via_vmap__+0x2c>
    11a0:	82 10 00 08 	mov  %o0, %g1
    11a4:	82 10 00 03 	mov  %g3, %g1
    11a8:	81 80 20 00 	mov  %g0, %y
    11ac:	01 00 00 00 	nop 
    11b0:	01 00 00 00 	nop 
    11b4:	01 00 00 00 	nop 
    11b8:	86 70 80 01 	udiv  %g2, %g1, %g3
    11bc:	86 58 c0 01 	smul  %g3, %g1, %g3
    11c0:	86 20 80 03 	sub  %g2, %g3, %g3
    11c4:	80 a0 e0 00 	cmp  %g3, 0
    11c8:	12 bf ff f7 	bne  11a4 <__ajit_serial_set_baudrate_via_vmap__+0x28>
    11cc:	84 10 00 01 	mov  %g1, %g2
    11d0:	81 80 20 00 	mov  %g0, %y
    11d4:	01 00 00 00 	nop 
    11d8:	01 00 00 00 	nop 
    11dc:	01 00 00 00 	nop 
    11e0:	84 72 00 01 	udiv  %o0, %g1, %g2
    11e4:	81 80 20 00 	mov  %g0, %y
    11e8:	01 00 00 00 	nop 
    11ec:	01 00 00 00 	nop 
    11f0:	01 00 00 00 	nop 
    11f4:	88 72 40 01 	udiv  %o1, %g1, %g4
    11f8:	03 3f ff cc 	sethi  %hi(0xffff3000), %g1
    11fc:	88 21 00 02 	sub  %g4, %g2, %g4
    1200:	86 10 62 0c 	or  %g1, 0x20c, %g3
    1204:	c8 20 c0 00 	st  %g4, [ %g3 ]
    1208:	82 10 62 10 	or  %g1, 0x210, %g1
    120c:	81 c3 e0 08 	retl 
    1210:	c4 20 40 00 	st  %g2, [ %g1 ]
    1214:	88 10 20 00 	clr  %g4
    1218:	86 10 62 0c 	or  %g1, 0x20c, %g3
    121c:	c8 20 c0 00 	st  %g4, [ %g3 ]
    1220:	84 10 20 00 	clr  %g2
    1224:	82 10 62 10 	or  %g1, 0x210, %g1
    1228:	81 c3 e0 08 	retl 
    122c:	c4 20 40 00 	st  %g2, [ %g1 ]

00001230 <__ajit_read_serial_baud_limit_register_via_vmap__>:
    1230:	03 3f ff cc 	sethi  %hi(0xffff3000), %g1
    1234:	82 10 62 0c 	or  %g1, 0x20c, %g1	! ffff320c <allocatedLocks+0xfffe201c>
    1238:	81 c3 e0 08 	retl 
    123c:	d0 00 40 00 	ld  [ %g1 ], %o0

00001240 <__ajit_write_serial_baud_limit_register_via_vmap__>:
    1240:	03 3f ff cc 	sethi  %hi(0xffff3000), %g1
    1244:	82 10 62 0c 	or  %g1, 0x20c, %g1	! ffff320c <allocatedLocks+0xfffe201c>
    1248:	81 c3 e0 08 	retl 
    124c:	d0 20 40 00 	st  %o0, [ %g1 ]

00001250 <__ajit_read_serial_baud_frequency_register_via_vmap__>:
    1250:	03 3f ff cc 	sethi  %hi(0xffff3000), %g1
    1254:	82 10 62 10 	or  %g1, 0x210, %g1	! ffff3210 <allocatedLocks+0xfffe2020>
    1258:	81 c3 e0 08 	retl 
    125c:	d0 00 40 00 	ld  [ %g1 ], %o0

00001260 <__ajit_write_serial_baud_frequency_register_via_vmap__>:
    1260:	03 3f ff cc 	sethi  %hi(0xffff3000), %g1
    1264:	82 10 62 10 	or  %g1, 0x210, %g1	! ffff3210 <allocatedLocks+0xfffe2020>
    1268:	81 c3 e0 08 	retl 
    126c:	d0 20 40 00 	st  %o0, [ %g1 ]

00001270 <calculate_baud_control_values_for_uart>:
    1270:	91 2a 20 04 	sll  %o0, 4, %o0
    1274:	80 a2 00 09 	cmp  %o0, %o1
    1278:	1a 80 00 05 	bcc  128c <calculate_baud_control_values_for_uart+0x1c>
    127c:	c0 22 80 00 	clr  [ %o2 ]
    1280:	82 92 20 00 	orcc  %o0, 0, %g1
    1284:	12 80 00 05 	bne  1298 <calculate_baud_control_values_for_uart+0x28>
    1288:	84 10 00 09 	mov  %o1, %g2
    128c:	81 c3 e0 08 	retl 
    1290:	c0 22 c0 00 	clr  [ %o3 ]
    1294:	82 10 00 03 	mov  %g3, %g1
    1298:	81 80 20 00 	mov  %g0, %y
    129c:	01 00 00 00 	nop 
    12a0:	01 00 00 00 	nop 
    12a4:	01 00 00 00 	nop 
    12a8:	86 70 80 01 	udiv  %g2, %g1, %g3
    12ac:	86 58 c0 01 	smul  %g3, %g1, %g3
    12b0:	86 20 80 03 	sub  %g2, %g3, %g3
    12b4:	80 a0 e0 00 	cmp  %g3, 0
    12b8:	12 bf ff f7 	bne  1294 <calculate_baud_control_values_for_uart+0x24>
    12bc:	84 10 00 01 	mov  %g1, %g2
    12c0:	81 80 20 00 	mov  %g0, %y
    12c4:	01 00 00 00 	nop 
    12c8:	01 00 00 00 	nop 
    12cc:	01 00 00 00 	nop 
    12d0:	84 72 00 01 	udiv  %o0, %g1, %g2
    12d4:	c4 22 c0 00 	st  %g2, [ %o3 ]
    12d8:	81 80 20 00 	mov  %g0, %y
    12dc:	01 00 00 00 	nop 
    12e0:	01 00 00 00 	nop 
    12e4:	01 00 00 00 	nop 
    12e8:	86 72 40 01 	udiv  %o1, %g1, %g3
    12ec:	84 20 c0 02 	sub  %g3, %g2, %g2
    12f0:	81 c3 e0 08 	retl 
    12f4:	c4 22 80 00 	st  %g2, [ %o2 ]

000012f8 <__ajit_serial_configure_inner__>:
    12f8:	05 3f ff cc 	sethi  %hi(0xffff3000), %g2
    12fc:	80 a2 60 00 	cmp  %o1, 0
    1300:	12 80 00 03 	bne  130c <__ajit_serial_configure_inner__+0x14>
    1304:	82 10 a2 40 	or  %g2, 0x240, %g1
    1308:	82 10 a2 00 	or  %g2, 0x200, %g1
    130c:	80 a2 20 00 	cmp  %o0, 0
    1310:	02 80 00 15 	be  1364 <__ajit_serial_configure_inner__+0x6c>
    1314:	01 00 00 00 	nop 
    1318:	c4 00 40 00 	ld  [ %g1 ], %g2
    131c:	80 a2 a0 00 	cmp  %o2, 0
    1320:	02 80 00 03 	be  132c <__ajit_serial_configure_inner__+0x34>
    1324:	86 08 bf fe 	and  %g2, -2, %g3
    1328:	86 10 a0 01 	or  %g2, 1, %g3
    132c:	80 a2 e0 00 	cmp  %o3, 0
    1330:	02 80 00 03 	be  133c <__ajit_serial_configure_inner__+0x44>
    1334:	84 08 ff fd 	and  %g3, -3, %g2
    1338:	84 10 e0 02 	or  %g3, 2, %g2
    133c:	80 a3 20 00 	cmp  %o4, 0
    1340:	02 80 00 03 	be  134c <__ajit_serial_configure_inner__+0x54>
    1344:	86 08 bf fb 	and  %g2, -5, %g3
    1348:	86 10 a0 04 	or  %g2, 4, %g3
    134c:	80 a2 20 00 	cmp  %o0, 0
    1350:	12 80 00 08 	bne  1370 <__ajit_serial_configure_inner__+0x78>
    1354:	01 00 00 00 	nop 
    1358:	c6 a0 44 00 	sta  %g3, [ %g1 ] #ASI_SCRATCHPAD
    135c:	81 c3 e0 08 	retl 
    1360:	01 00 00 00 	nop 
    1364:	c4 80 44 00 	lda  [ %g1 ] #ASI_SCRATCHPAD, %g2
    1368:	10 bf ff ee 	b  1320 <__ajit_serial_configure_inner__+0x28>
    136c:	80 a2 a0 00 	cmp  %o2, 0
    1370:	81 c3 e0 08 	retl 
    1374:	c6 20 40 00 	st  %g3, [ %g1 ]

00001378 <__ajit_serial_configure_via_vmap__>:
    1378:	82 10 00 08 	mov  %o0, %g1
    137c:	96 10 00 09 	mov  %o1, %o3
    1380:	98 10 00 0a 	mov  %o2, %o4
    1384:	90 10 20 01 	mov  1, %o0
    1388:	92 10 20 00 	clr  %o1
    138c:	94 10 00 01 	mov  %g1, %o2
    1390:	82 13 c0 00 	mov  %o7, %g1
    1394:	7f ff ff d9 	call  12f8 <__ajit_serial_configure_inner__>
    1398:	9e 10 40 00 	mov  %g1, %o7

0000139c <__ajit_serial_configure_via_bypass__>:
    139c:	82 10 00 08 	mov  %o0, %g1
    13a0:	96 10 00 09 	mov  %o1, %o3
    13a4:	98 10 00 0a 	mov  %o2, %o4
    13a8:	90 10 20 00 	clr  %o0
    13ac:	92 10 20 00 	clr  %o1
    13b0:	94 10 00 01 	mov  %g1, %o2
    13b4:	82 13 c0 00 	mov  %o7, %g1
    13b8:	7f ff ff d0 	call  12f8 <__ajit_serial_configure_inner__>
    13bc:	9e 10 40 00 	mov  %g1, %o7

000013c0 <__ajit_serial_set_baudrate_inner__>:
    13c0:	95 2a a0 04 	sll  %o2, 4, %o2
    13c4:	80 a2 80 0b 	cmp  %o2, %o3
    13c8:	1a 80 00 06 	bcc  13e0 <__ajit_serial_set_baudrate_inner__+0x20>
    13cc:	84 10 20 00 	clr  %g2
    13d0:	80 a2 a0 00 	cmp  %o2, 0
    13d4:	12 80 00 0f 	bne  1410 <__ajit_serial_set_baudrate_inner__+0x50>
    13d8:	84 10 00 0b 	mov  %o3, %g2
    13dc:	84 10 20 00 	clr  %g2
    13e0:	86 10 20 00 	clr  %g3
    13e4:	80 a2 60 00 	cmp  %o1, 0
    13e8:	02 80 00 25 	be  147c <__ajit_serial_set_baudrate_inner__+0xbc>
    13ec:	03 3f ff cc 	sethi  %hi(0xffff3000), %g1
    13f0:	88 10 62 4c 	or  %g1, 0x24c, %g4	! ffff324c <allocatedLocks+0xfffe205c>
    13f4:	80 a2 20 00 	cmp  %o0, 0
    13f8:	12 80 00 25 	bne  148c <__ajit_serial_set_baudrate_inner__+0xcc>
    13fc:	82 10 62 50 	or  %g1, 0x250, %g1
    1400:	c6 a1 04 00 	sta  %g3, [ %g4 ] #ASI_SCRATCHPAD
    1404:	c4 a0 44 00 	sta  %g2, [ %g1 ] #ASI_SCRATCHPAD
    1408:	81 c3 e0 08 	retl 
    140c:	01 00 00 00 	nop 
    1410:	10 80 00 03 	b  141c <__ajit_serial_set_baudrate_inner__+0x5c>
    1414:	82 10 00 0a 	mov  %o2, %g1
    1418:	82 10 00 03 	mov  %g3, %g1
    141c:	81 80 20 00 	mov  %g0, %y
    1420:	01 00 00 00 	nop 
    1424:	01 00 00 00 	nop 
    1428:	01 00 00 00 	nop 
    142c:	86 70 80 01 	udiv  %g2, %g1, %g3
    1430:	86 58 c0 01 	smul  %g3, %g1, %g3
    1434:	86 20 80 03 	sub  %g2, %g3, %g3
    1438:	80 a0 e0 00 	cmp  %g3, 0
    143c:	12 bf ff f7 	bne  1418 <__ajit_serial_set_baudrate_inner__+0x58>
    1440:	84 10 00 01 	mov  %g1, %g2
    1444:	81 80 20 00 	mov  %g0, %y
    1448:	01 00 00 00 	nop 
    144c:	01 00 00 00 	nop 
    1450:	01 00 00 00 	nop 
    1454:	84 72 80 01 	udiv  %o2, %g1, %g2
    1458:	81 80 20 00 	mov  %g0, %y
    145c:	01 00 00 00 	nop 
    1460:	01 00 00 00 	nop 
    1464:	01 00 00 00 	nop 
    1468:	86 72 c0 01 	udiv  %o3, %g1, %g3
    146c:	80 a2 60 00 	cmp  %o1, 0
    1470:	86 20 c0 02 	sub  %g3, %g2, %g3
    1474:	12 bf ff df 	bne  13f0 <__ajit_serial_set_baudrate_inner__+0x30>
    1478:	03 3f ff cc 	sethi  %hi(0xffff3000), %g1
    147c:	88 10 62 0c 	or  %g1, 0x20c, %g4	! ffff320c <allocatedLocks+0xfffe201c>
    1480:	80 a2 20 00 	cmp  %o0, 0
    1484:	02 bf ff df 	be  1400 <__ajit_serial_set_baudrate_inner__+0x40>
    1488:	82 10 62 10 	or  %g1, 0x210, %g1
    148c:	c6 21 00 00 	st  %g3, [ %g4 ]
    1490:	81 c3 e0 08 	retl 
    1494:	c4 20 40 00 	st  %g2, [ %g1 ]

00001498 <__ajit_serial_putchar_inner__>:
    1498:	84 10 00 08 	mov  %o0, %g2
    149c:	80 a2 60 00 	cmp  %o1, 0
    14a0:	02 80 00 17 	be  14fc <__ajit_serial_putchar_inner__+0x64>
    14a4:	07 3f ff cc 	sethi  %hi(0xffff3000), %g3
    14a8:	82 10 e2 40 	or  %g3, 0x240, %g1	! ffff3240 <allocatedLocks+0xfffe2050>
    14ac:	86 10 e2 44 	or  %g3, 0x244, %g3
    14b0:	80 a0 a0 00 	cmp  %g2, 0
    14b4:	02 80 00 0f 	be  14f0 <__ajit_serial_putchar_inner__+0x58>
    14b8:	01 00 00 00 	nop 
    14bc:	c2 00 40 00 	ld  [ %g1 ], %g1
    14c0:	80 88 60 01 	btst  1, %g1
    14c4:	02 80 00 09 	be  14e8 <__ajit_serial_putchar_inner__+0x50>
    14c8:	90 10 20 00 	clr  %o0
    14cc:	80 88 60 08 	btst  8, %g1
    14d0:	12 80 00 06 	bne  14e8 <__ajit_serial_putchar_inner__+0x50>
    14d4:	80 a0 a0 00 	cmp  %g2, 0
    14d8:	32 80 00 0c 	bne,a   1508 <__ajit_serial_putchar_inner__+0x70>
    14dc:	d4 28 c0 00 	stb  %o2, [ %g3 ]
    14e0:	d4 a8 c4 00 	stba  %o2, [ %g3 ] #ASI_SCRATCHPAD
    14e4:	90 10 20 01 	mov  1, %o0
    14e8:	81 c3 e0 08 	retl 
    14ec:	01 00 00 00 	nop 
    14f0:	c2 80 44 00 	lda  [ %g1 ] #ASI_SCRATCHPAD, %g1
    14f4:	10 bf ff f4 	b  14c4 <__ajit_serial_putchar_inner__+0x2c>
    14f8:	80 88 60 01 	btst  1, %g1
    14fc:	82 10 e2 00 	or  %g3, 0x200, %g1
    1500:	10 bf ff ec 	b  14b0 <__ajit_serial_putchar_inner__+0x18>
    1504:	86 10 e2 04 	or  %g3, 0x204, %g3
    1508:	81 c3 e0 08 	retl 
    150c:	90 10 20 01 	mov  1, %o0

00001510 <__ajit_serial_putchar_via_vmap__>:
    1510:	94 10 00 08 	mov  %o0, %o2
    1514:	92 10 20 00 	clr  %o1
    1518:	90 10 20 01 	mov  1, %o0
    151c:	82 13 c0 00 	mov  %o7, %g1
    1520:	7f ff ff de 	call  1498 <__ajit_serial_putchar_inner__>
    1524:	9e 10 40 00 	mov  %g1, %o7

00001528 <__ajit_serial_putchar_via_bypass__>:
    1528:	94 10 00 08 	mov  %o0, %o2
    152c:	92 10 20 00 	clr  %o1
    1530:	90 10 20 00 	clr  %o0
    1534:	82 13 c0 00 	mov  %o7, %g1
    1538:	7f ff ff d8 	call  1498 <__ajit_serial_putchar_inner__>
    153c:	9e 10 40 00 	mov  %g1, %o7

00001540 <__ajit_serial_getchar_inner__>:
    1540:	80 a2 60 00 	cmp  %o1, 0
    1544:	02 80 00 0f 	be  1580 <__ajit_serial_getchar_inner__+0x40>
    1548:	05 3f ff cc 	sethi  %hi(0xffff3000), %g2
    154c:	82 10 a2 40 	or  %g2, 0x240, %g1	! ffff3240 <allocatedLocks+0xfffe2050>
    1550:	80 a2 20 00 	cmp  %o0, 0
    1554:	02 80 00 0f 	be  1590 <__ajit_serial_getchar_inner__+0x50>
    1558:	84 10 a2 48 	or  %g2, 0x248, %g2
    155c:	c2 00 40 00 	ld  [ %g1 ], %g1
    1560:	82 08 60 12 	and  %g1, 0x12, %g1
    1564:	80 a0 60 12 	cmp  %g1, 0x12
    1568:	12 80 00 13 	bne  15b4 <__ajit_serial_getchar_inner__+0x74>
    156c:	01 00 00 00 	nop 
    1570:	c2 08 80 00 	ldub  [ %g2 ], %g1
    1574:	90 10 20 01 	mov  1, %o0
    1578:	81 c3 e0 08 	retl 
    157c:	c2 2a 80 00 	stb  %g1, [ %o2 ]
    1580:	82 10 a2 00 	or  %g2, 0x200, %g1
    1584:	80 a2 20 00 	cmp  %o0, 0
    1588:	12 bf ff f5 	bne  155c <__ajit_serial_getchar_inner__+0x1c>
    158c:	84 10 a2 08 	or  %g2, 0x208, %g2
    1590:	c2 80 44 00 	lda  [ %g1 ] #ASI_SCRATCHPAD, %g1
    1594:	82 08 60 12 	and  %g1, 0x12, %g1
    1598:	80 a0 60 12 	cmp  %g1, 0x12
    159c:	12 80 00 06 	bne  15b4 <__ajit_serial_getchar_inner__+0x74>
    15a0:	01 00 00 00 	nop 
    15a4:	c4 88 84 00 	lduba  [ %g2 ] #ASI_SCRATCHPAD, %g2
    15a8:	90 10 20 01 	mov  1, %o0
    15ac:	81 c3 e0 08 	retl 
    15b0:	c4 2a 80 00 	stb  %g2, [ %o2 ]
    15b4:	81 c3 e0 08 	retl 
    15b8:	90 10 20 00 	clr  %o0

000015bc <__ajit_serial_getchar_via_vmap__>:
    15bc:	9d e3 bf 98 	save  %sp, -104, %sp
    15c0:	90 10 20 01 	mov  1, %o0
    15c4:	92 10 20 00 	clr  %o1
    15c8:	7f ff ff de 	call  1540 <__ajit_serial_getchar_inner__>
    15cc:	94 07 bf ff 	add  %fp, -1, %o2
    15d0:	80 a2 20 00 	cmp  %o0, 0
    15d4:	22 bf ff fc 	be,a   15c4 <__ajit_serial_getchar_via_vmap__+0x8>
    15d8:	90 10 20 01 	mov  1, %o0
    15dc:	f0 4f bf ff 	ldsb  [ %fp + -1 ], %i0
    15e0:	81 c7 e0 08 	ret 
    15e4:	81 e8 00 00 	restore 

000015e8 <__ajit_serial_getchar_via_bypass__>:
    15e8:	9d e3 bf 98 	save  %sp, -104, %sp
    15ec:	90 10 20 00 	clr  %o0
    15f0:	92 10 20 00 	clr  %o1
    15f4:	7f ff ff d3 	call  1540 <__ajit_serial_getchar_inner__>
    15f8:	94 07 bf ff 	add  %fp, -1, %o2
    15fc:	80 a2 20 00 	cmp  %o0, 0
    1600:	22 bf ff fc 	be,a   15f0 <__ajit_serial_getchar_via_bypass__+0x8>
    1604:	90 10 20 00 	clr  %o0
    1608:	f0 4f bf ff 	ldsb  [ %fp + -1 ], %i0
    160c:	81 c7 e0 08 	ret 
    1610:	81 e8 00 00 	restore 

00001614 <__ajit_serial_puts_inner__>:
    1614:	9d e3 bf a0 	save  %sp, -96, %sp
    1618:	80 a6 e0 00 	cmp  %i3, 0
    161c:	02 80 00 1a 	be  1684 <__ajit_serial_puts_inner__+0x70>
    1620:	01 00 00 00 	nop 
    1624:	d4 0e 80 00 	ldub  [ %i2 ], %o2
    1628:	95 2a a0 18 	sll  %o2, 0x18, %o2
    162c:	80 a2 a0 00 	cmp  %o2, 0
    1630:	02 80 00 15 	be  1684 <__ajit_serial_puts_inner__+0x70>
    1634:	ba 06 a0 01 	add  %i2, 1, %i5
    1638:	10 80 00 03 	b  1644 <__ajit_serial_puts_inner__+0x30>
    163c:	b8 06 80 1b 	add  %i2, %i3, %i4
    1640:	95 2a a0 18 	sll  %o2, 0x18, %o2
    1644:	95 3a a0 18 	sra  %o2, 0x18, %o2
    1648:	90 10 00 18 	mov  %i0, %o0
    164c:	7f ff ff 93 	call  1498 <__ajit_serial_putchar_inner__>
    1650:	92 10 00 19 	mov  %i1, %o1
    1654:	80 a2 20 00 	cmp  %o0, 0
    1658:	22 bf ff fa 	be,a   1640 <__ajit_serial_puts_inner__+0x2c>
    165c:	d4 0e 80 00 	ldub  [ %i2 ], %o2
    1660:	80 a7 40 1c 	cmp  %i5, %i4
    1664:	02 80 00 08 	be  1684 <__ajit_serial_puts_inner__+0x70>
    1668:	b4 10 00 1d 	mov  %i5, %i2
    166c:	ba 07 60 01 	inc  %i5
    1670:	d4 0f 7f ff 	ldub  [ %i5 + -1 ], %o2
    1674:	95 2a a0 18 	sll  %o2, 0x18, %o2
    1678:	80 a2 a0 00 	cmp  %o2, 0
    167c:	12 bf ff f3 	bne  1648 <__ajit_serial_puts_inner__+0x34>
    1680:	95 3a a0 18 	sra  %o2, 0x18, %o2
    1684:	81 c7 e0 08 	ret 
    1688:	81 e8 00 00 	restore 

0000168c <__ajit_serial_puts_via_vmap__>:
    168c:	94 10 00 08 	mov  %o0, %o2
    1690:	96 10 00 09 	mov  %o1, %o3
    1694:	90 10 20 01 	mov  1, %o0
    1698:	92 10 20 00 	clr  %o1
    169c:	82 13 c0 00 	mov  %o7, %g1
    16a0:	7f ff ff dd 	call  1614 <__ajit_serial_puts_inner__>
    16a4:	9e 10 40 00 	mov  %g1, %o7

000016a8 <__ajit_serial_puts_via_bypass__>:
    16a8:	94 10 00 08 	mov  %o0, %o2
    16ac:	96 10 00 09 	mov  %o1, %o3
    16b0:	90 10 20 00 	clr  %o0
    16b4:	92 10 20 00 	clr  %o1
    16b8:	82 13 c0 00 	mov  %o7, %g1
    16bc:	7f ff ff d6 	call  1614 <__ajit_serial_puts_inner__>
    16c0:	9e 10 40 00 	mov  %g1, %o7

000016c4 <__ajit_serial_gets_inner__>:
    16c4:	9d e3 bf 98 	save  %sp, -104, %sp
    16c8:	80 a6 e0 01 	cmp  %i3, 1
    16cc:	22 80 00 18 	be,a   172c <__ajit_serial_gets_inner__+0x68>
    16d0:	b6 06 80 1b 	add  %i2, %i3, %i3
    16d4:	a0 06 ff ff 	add  %i3, -1, %l0
    16d8:	b8 10 20 00 	clr  %i4
    16dc:	ba 10 20 00 	clr  %i5
    16e0:	c0 2f bf ff 	clrb  [ %fp + -1 ]
    16e4:	90 10 00 18 	mov  %i0, %o0
    16e8:	92 10 00 19 	mov  %i1, %o1
    16ec:	7f ff ff 95 	call  1540 <__ajit_serial_getchar_inner__>
    16f0:	94 07 bf ff 	add  %fp, -1, %o2
    16f4:	80 a2 20 00 	cmp  %o0, 0
    16f8:	22 bf ff fc 	be,a   16e8 <__ajit_serial_gets_inner__+0x24>
    16fc:	90 10 00 18 	mov  %i0, %o0
    1700:	c2 0f bf ff 	ldub  [ %fp + -1 ], %g1
    1704:	c2 2e 80 1c 	stb  %g1, [ %i2 + %i4 ]
    1708:	83 28 60 18 	sll  %g1, 0x18, %g1
    170c:	80 a0 60 00 	cmp  %g1, 0
    1710:	22 80 00 07 	be,a   172c <__ajit_serial_gets_inner__+0x68>
    1714:	b6 06 80 1b 	add  %i2, %i3, %i3
    1718:	ba 07 60 01 	inc  %i5
    171c:	80 a7 40 10 	cmp  %i5, %l0
    1720:	12 bf ff f0 	bne  16e0 <__ajit_serial_gets_inner__+0x1c>
    1724:	b8 10 00 1d 	mov  %i5, %i4
    1728:	b6 06 80 1b 	add  %i2, %i3, %i3
    172c:	c0 2e ff ff 	clrb  [ %i3 + -1 ]
    1730:	81 c7 e0 08 	ret 
    1734:	81 e8 00 00 	restore 

00001738 <__ajit_serial_gets_via_vmap__>:
    1738:	94 10 00 08 	mov  %o0, %o2
    173c:	96 10 00 09 	mov  %o1, %o3
    1740:	90 10 20 01 	mov  1, %o0
    1744:	92 10 20 00 	clr  %o1
    1748:	82 13 c0 00 	mov  %o7, %g1
    174c:	7f ff ff de 	call  16c4 <__ajit_serial_gets_inner__>
    1750:	9e 10 40 00 	mov  %g1, %o7

00001754 <__ajit_serial_gets_via_bypass__>:
    1754:	94 10 00 08 	mov  %o0, %o2
    1758:	96 10 00 09 	mov  %o1, %o3
    175c:	90 10 20 00 	clr  %o0
    1760:	92 10 20 00 	clr  %o1
    1764:	82 13 c0 00 	mov  %o7, %g1
    1768:	7f ff ff d7 	call  16c4 <__ajit_serial_gets_inner__>
    176c:	9e 10 40 00 	mov  %g1, %o7

00001770 <__ajit_serial_set_uart_reset_inner__>:
    1770:	05 3f ff cc 	sethi  %hi(0xffff3000), %g2
    1774:	80 a2 60 00 	cmp  %o1, 0
    1778:	12 80 00 03 	bne  1784 <__ajit_serial_set_uart_reset_inner__+0x14>
    177c:	82 10 a2 40 	or  %g2, 0x240, %g1
    1780:	82 10 a2 00 	or  %g2, 0x200, %g1
    1784:	80 a2 20 00 	cmp  %o0, 0
    1788:	02 80 00 0d 	be  17bc <__ajit_serial_set_uart_reset_inner__+0x4c>
    178c:	01 00 00 00 	nop 
    1790:	c6 00 40 00 	ld  [ %g1 ], %g3
    1794:	80 a2 a0 00 	cmp  %o2, 0
    1798:	12 80 00 03 	bne  17a4 <__ajit_serial_set_uart_reset_inner__+0x34>
    179c:	84 10 e0 20 	or  %g3, 0x20, %g2
    17a0:	84 08 ff df 	and  %g3, -33, %g2
    17a4:	80 a2 20 00 	cmp  %o0, 0
    17a8:	12 80 00 08 	bne  17c8 <__ajit_serial_set_uart_reset_inner__+0x58>
    17ac:	01 00 00 00 	nop 
    17b0:	c4 a0 44 00 	sta  %g2, [ %g1 ] #ASI_SCRATCHPAD
    17b4:	81 c3 e0 08 	retl 
    17b8:	01 00 00 00 	nop 
    17bc:	c6 80 44 00 	lda  [ %g1 ] #ASI_SCRATCHPAD, %g3
    17c0:	10 bf ff f6 	b  1798 <__ajit_serial_set_uart_reset_inner__+0x28>
    17c4:	80 a2 a0 00 	cmp  %o2, 0
    17c8:	81 c3 e0 08 	retl 
    17cc:	c4 20 40 00 	st  %g2, [ %g1 ]

000017d0 <__ajit_serial_set_uart_reset_via_vmap__>:
    17d0:	94 10 00 08 	mov  %o0, %o2
    17d4:	92 10 20 00 	clr  %o1
    17d8:	90 10 20 01 	mov  1, %o0
    17dc:	82 13 c0 00 	mov  %o7, %g1
    17e0:	7f ff ff e4 	call  1770 <__ajit_serial_set_uart_reset_inner__>
    17e4:	9e 10 40 00 	mov  %g1, %o7

000017e8 <__ajit_serial_set_uart_reset_via_bypass__>:
    17e8:	94 10 00 08 	mov  %o0, %o2
    17ec:	92 10 20 00 	clr  %o1
    17f0:	90 10 20 00 	clr  %o0
    17f4:	82 13 c0 00 	mov  %o7, %g1
    17f8:	7f ff ff de 	call  1770 <__ajit_serial_set_uart_reset_inner__>
    17fc:	9e 10 40 00 	mov  %g1, %o7

00001800 <__ajit_write_irc_control_register_via_bypass__>:
    1800:	03 3f ff cc 	sethi  %hi(0xffff3000), %g1
    1804:	d0 a0 44 00 	sta  %o0, [ %g1 ] #ASI_SCRATCHPAD
    1808:	81 c3 e0 08 	retl 
    180c:	01 00 00 00 	nop 

00001810 <__ajit_read_irc_control_register_via_bypass__>:
    1810:	11 3f ff cc 	sethi  %hi(0xffff3000), %o0
    1814:	d0 82 04 00 	lda  [ %o0 ] #ASI_SCRATCHPAD, %o0
    1818:	81 c3 e0 08 	retl 
    181c:	01 00 00 00 	nop 

00001820 <__ajit_write_irc_control_register_via_vmap__>:
    1820:	03 3f ff cc 	sethi  %hi(0xffff3000), %g1
    1824:	81 c3 e0 08 	retl 
    1828:	d0 20 40 00 	st  %o0, [ %g1 ]

0000182c <__ajit_read_irc_control_register_via_vmap__>:
    182c:	03 3f ff cc 	sethi  %hi(0xffff3000), %g1
    1830:	81 c3 e0 08 	retl 
    1834:	d0 00 40 00 	ld  [ %g1 ], %o0

00001838 <__ajit_write_spi_master_register_via_bypass__>:
    1838:	91 2a 20 02 	sll  %o0, 2, %o0
    183c:	03 3f ff cc 	sethi  %hi(0xffff3000), %g1
    1840:	82 10 63 00 	or  %g1, 0x300, %g1	! ffff3300 <allocatedLocks+0xfffe2110>
    1844:	90 02 00 01 	add  %o0, %g1, %o0
    1848:	d2 a2 04 00 	sta  %o1, [ %o0 ] #ASI_SCRATCHPAD
    184c:	81 c3 e0 08 	retl 
    1850:	01 00 00 00 	nop 

00001854 <__ajit_write_spi_master_register_via_vmap__>:
    1854:	91 2a 20 02 	sll  %o0, 2, %o0
    1858:	03 3f ff cc 	sethi  %hi(0xffff3000), %g1
    185c:	82 10 63 00 	or  %g1, 0x300, %g1	! ffff3300 <allocatedLocks+0xfffe2110>
    1860:	81 c3 e0 08 	retl 
    1864:	d2 2a 00 01 	stb  %o1, [ %o0 + %g1 ]

00001868 <__ajit_read_spi_master_register_via_bypass__>:
    1868:	91 2a 20 02 	sll  %o0, 2, %o0
    186c:	03 3f ff cc 	sethi  %hi(0xffff3000), %g1
    1870:	82 10 63 00 	or  %g1, 0x300, %g1	! ffff3300 <allocatedLocks+0xfffe2110>
    1874:	90 02 00 01 	add  %o0, %g1, %o0
    1878:	d0 82 04 00 	lda  [ %o0 ] #ASI_SCRATCHPAD, %o0
    187c:	81 c3 e0 08 	retl 
    1880:	90 0a 20 ff 	and  %o0, 0xff, %o0

00001884 <__ajit_read_spi_master_register_via_vmap__>:
    1884:	91 2a 20 02 	sll  %o0, 2, %o0
    1888:	03 3f ff cc 	sethi  %hi(0xffff3000), %g1
    188c:	82 10 63 00 	or  %g1, 0x300, %g1	! ffff3300 <allocatedLocks+0xfffe2110>
    1890:	81 c3 e0 08 	retl 
    1894:	d0 0a 00 01 	ldub  [ %o0 + %g1 ], %o0

00001898 <__ajit_do_spi_transfer_via_bypass__>:
    1898:	07 3f ff cc 	sethi  %hi(0xffff3000), %g3
    189c:	82 10 e3 00 	or  %g3, 0x300, %g1	! ffff3300 <allocatedLocks+0xfffe2110>
    18a0:	d2 a0 44 00 	sta  %o1, [ %g1 ] #ASI_SCRATCHPAD
    18a4:	82 0a 20 07 	and  %o0, 7, %g1
    18a8:	94 0a a0 01 	and  %o2, 1, %o2
    18ac:	83 28 60 03 	sll  %g1, 3, %g1
    18b0:	94 02 80 0a 	add  %o2, %o2, %o2
    18b4:	82 10 60 01 	or  %g1, 1, %g1
    18b8:	86 10 e3 08 	or  %g3, 0x308, %g3
    18bc:	94 12 80 01 	or  %o2, %g1, %o2
    18c0:	d4 a0 c4 00 	sta  %o2, [ %g3 ] #ASI_SCRATCHPAD
    18c4:	10 80 00 04 	b  18d4 <__ajit_do_spi_transfer_via_bypass__+0x3c>
    18c8:	03 00 00 08 	sethi  %hi(0x2000), %g1
    18cc:	02 80 00 07 	be  18e8 <__ajit_do_spi_transfer_via_bypass__+0x50>
    18d0:	11 3f ff cc 	sethi  %hi(0xffff3000), %o0
    18d4:	c4 80 c4 00 	lda  [ %g3 ] #ASI_SCRATCHPAD, %g2
    18d8:	80 88 a0 01 	btst  1, %g2
    18dc:	32 bf ff fc 	bne,a   18cc <__ajit_do_spi_transfer_via_bypass__+0x34>
    18e0:	82 80 7f ff 	addcc  %g1, -1, %g1
    18e4:	11 3f ff cc 	sethi  %hi(0xffff3000), %o0
    18e8:	90 12 23 00 	or  %o0, 0x300, %o0	! ffff3300 <allocatedLocks+0xfffe2110>
    18ec:	d0 82 04 00 	lda  [ %o0 ] #ASI_SCRATCHPAD, %o0
    18f0:	81 c3 e0 08 	retl 
    18f4:	90 0a 20 ff 	and  %o0, 0xff, %o0

000018f8 <__ajit_do_spi_transfer_via_vmap__>:
    18f8:	03 3f ff cc 	sethi  %hi(0xffff3000), %g1
    18fc:	90 0a 20 07 	and  %o0, 7, %o0
    1900:	84 10 63 00 	or  %g1, 0x300, %g2
    1904:	91 2a 20 03 	sll  %o0, 3, %o0
    1908:	d2 20 80 00 	st  %o1, [ %g2 ]
    190c:	90 12 20 01 	or  %o0, 1, %o0
    1910:	82 10 63 08 	or  %g1, 0x308, %g1
    1914:	94 0a a0 01 	and  %o2, 1, %o2
    1918:	94 02 80 0a 	add  %o2, %o2, %o2
    191c:	94 12 80 08 	or  %o2, %o0, %o2
    1920:	90 10 00 09 	mov  %o1, %o0
    1924:	81 c3 e0 08 	retl 
    1928:	d4 20 40 00 	st  %o2, [ %g1 ]

0000192c <__ajit_configure_spi_master_via_bypass___>:
    192c:	90 0a 20 0f 	and  %o0, 0xf, %o0
    1930:	03 3f ff cc 	sethi  %hi(0xffff3000), %g1
    1934:	90 12 20 10 	or  %o0, 0x10, %o0
    1938:	82 10 63 0c 	or  %g1, 0x30c, %g1
    193c:	d0 a0 44 00 	sta  %o0, [ %g1 ] #ASI_SCRATCHPAD
    1940:	81 c3 e0 08 	retl 
    1944:	90 10 20 00 	clr  %o0

00001948 <__ajit_configure_spi_master_via_vmap___>:
    1948:	90 0a 20 0f 	and  %o0, 0xf, %o0
    194c:	03 3f ff cc 	sethi  %hi(0xffff3000), %g1
    1950:	84 12 20 10 	or  %o0, 0x10, %g2
    1954:	82 10 63 0c 	or  %g1, 0x30c, %g1
    1958:	90 10 20 00 	clr  %o0
    195c:	81 c3 e0 08 	retl 
    1960:	c4 20 40 00 	st  %g2, [ %g1 ]

00001964 <__ajit_do_spi_transfer_inner__>:
    1964:	92 0a 60 07 	and  %o1, 7, %o1
    1968:	83 2a 60 03 	sll  %o1, 3, %g1
    196c:	82 10 60 01 	or  %g1, 1, %g1
    1970:	96 0a e0 01 	and  %o3, 1, %o3
    1974:	80 a2 20 00 	cmp  %o0, 0
    1978:	96 02 c0 0b 	add  %o3, %o3, %o3
    197c:	96 12 c0 01 	or  %o3, %g1, %o3
    1980:	02 80 00 20 	be  1a00 <__ajit_do_spi_transfer_inner__+0x9c>
    1984:	03 3f ff cc 	sethi  %hi(0xffff3000), %g1
    1988:	84 10 63 00 	or  %g1, 0x300, %g2	! ffff3300 <allocatedLocks+0xfffe2110>
    198c:	d4 20 80 00 	st  %o2, [ %g2 ]
    1990:	96 0a e0 ff 	and  %o3, 0xff, %o3
    1994:	82 10 63 08 	or  %g1, 0x308, %g1
    1998:	d6 20 40 00 	st  %o3, [ %g1 ]
    199c:	07 3f ff cc 	sethi  %hi(0xffff3000), %g3
    19a0:	03 00 00 08 	sethi  %hi(0x2000), %g1
    19a4:	10 80 00 08 	b  19c4 <__ajit_do_spi_transfer_inner__+0x60>
    19a8:	86 10 e3 08 	or  %g3, 0x308, %g3
    19ac:	80 88 a0 01 	btst  1, %g2
    19b0:	02 80 00 0d 	be  19e4 <__ajit_do_spi_transfer_inner__+0x80>
    19b4:	80 a2 20 00 	cmp  %o0, 0
    19b8:	82 80 7f ff 	addcc  %g1, -1, %g1
    19bc:	02 80 00 0a 	be  19e4 <__ajit_do_spi_transfer_inner__+0x80>
    19c0:	80 a2 20 00 	cmp  %o0, 0
    19c4:	80 a2 20 00 	cmp  %o0, 0
    19c8:	32 bf ff f9 	bne,a   19ac <__ajit_do_spi_transfer_inner__+0x48>
    19cc:	c4 00 c0 00 	ld  [ %g3 ], %g2
    19d0:	c4 80 c4 00 	lda  [ %g3 ] #ASI_SCRATCHPAD, %g2
    19d4:	80 88 a0 01 	btst  1, %g2
    19d8:	32 bf ff f9 	bne,a   19bc <__ajit_do_spi_transfer_inner__+0x58>
    19dc:	82 80 7f ff 	addcc  %g1, -1, %g1
    19e0:	80 a2 20 00 	cmp  %o0, 0
    19e4:	32 80 00 0d 	bne,a   1a18 <__ajit_do_spi_transfer_inner__+0xb4>
    19e8:	03 3f ff cc 	sethi  %hi(0xffff3000), %g1
    19ec:	11 3f ff cc 	sethi  %hi(0xffff3000), %o0
    19f0:	90 12 23 00 	or  %o0, 0x300, %o0	! ffff3300 <allocatedLocks+0xfffe2110>
    19f4:	d0 82 04 00 	lda  [ %o0 ] #ASI_SCRATCHPAD, %o0
    19f8:	81 c3 e0 08 	retl 
    19fc:	90 0a 20 ff 	and  %o0, 0xff, %o0
    1a00:	84 10 63 00 	or  %g1, 0x300, %g2
    1a04:	d4 a0 84 00 	sta  %o2, [ %g2 ] #ASI_SCRATCHPAD
    1a08:	82 10 63 08 	or  %g1, 0x308, %g1
    1a0c:	d6 a0 44 00 	sta  %o3, [ %g1 ] #ASI_SCRATCHPAD
    1a10:	10 bf ff e4 	b  19a0 <__ajit_do_spi_transfer_inner__+0x3c>
    1a14:	07 3f ff cc 	sethi  %hi(0xffff3000), %g3
    1a18:	82 10 63 00 	or  %g1, 0x300, %g1
    1a1c:	d0 00 40 00 	ld  [ %g1 ], %o0
    1a20:	81 c3 e0 08 	retl 
    1a24:	90 0a 20 ff 	and  %o0, 0xff, %o0

00001a28 <__ajit_gpio_xfer__>:
    1a28:	09 3f ff cc 	sethi  %hi(0xffff3000), %g4
    1a2c:	82 11 23 00 	or  %g4, 0x300, %g1	! ffff3300 <allocatedLocks+0xfffe2110>
    1a30:	d2 a0 44 00 	sta  %o1, [ %g1 ] #ASI_SCRATCHPAD
    1a34:	90 0a 20 07 	and  %o0, 7, %o0
    1a38:	88 11 23 08 	or  %g4, 0x308, %g4
    1a3c:	91 2a 20 03 	sll  %o0, 3, %o0
    1a40:	90 12 20 03 	or  %o0, 3, %o0
    1a44:	d0 a1 04 00 	sta  %o0, [ %g4 ] #ASI_SCRATCHPAD
    1a48:	82 10 21 00 	mov  0x100, %g1
    1a4c:	c4 81 04 00 	lda  [ %g4 ] #ASI_SCRATCHPAD, %g2
    1a50:	82 00 7f ff 	add  %g1, -1, %g1
    1a54:	87 38 60 1f 	sra  %g1, 0x1f, %g3
    1a58:	86 20 c0 01 	sub  %g3, %g1, %g3
    1a5c:	87 30 e0 1f 	srl  %g3, 0x1f, %g3
    1a60:	80 88 c0 02 	btst  %g3, %g2
    1a64:	12 bf ff fa 	bne  1a4c <__ajit_gpio_xfer__+0x24>
    1a68:	11 3f ff cc 	sethi  %hi(0xffff3000), %o0
    1a6c:	90 12 23 00 	or  %o0, 0x300, %o0	! ffff3300 <allocatedLocks+0xfffe2110>
    1a70:	d0 82 04 00 	lda  [ %o0 ] #ASI_SCRATCHPAD, %o0
    1a74:	81 c3 e0 08 	retl 
    1a78:	90 0a 20 ff 	and  %o0, 0xff, %o0

00001a7c <__ajit_read_gpio_32_via_vmap__>:
    1a7c:	03 3f ff cd 	sethi  %hi(0xffff3400), %g1
    1a80:	82 10 60 04 	or  %g1, 4, %g1	! ffff3404 <allocatedLocks+0xfffe2214>
    1a84:	81 c3 e0 08 	retl 
    1a88:	d0 00 40 00 	ld  [ %g1 ], %o0

00001a8c <__ajit_write_gpio_32_via_vmap__>:
    1a8c:	03 3f ff cd 	sethi  %hi(0xffff3400), %g1
    1a90:	81 c3 e0 08 	retl 
    1a94:	d0 20 40 00 	st  %o0, [ %g1 ]

00001a98 <__ajit_read_gpio_32_via_bypass__>:
    1a98:	11 3f ff cd 	sethi  %hi(0xffff3400), %o0
    1a9c:	90 12 20 04 	or  %o0, 4, %o0	! ffff3404 <allocatedLocks+0xfffe2214>
    1aa0:	d0 82 04 00 	lda  [ %o0 ] #ASI_SCRATCHPAD, %o0
    1aa4:	81 c3 e0 08 	retl 
    1aa8:	01 00 00 00 	nop 

00001aac <__ajit_write_gpio_32_via_bypass__>:
    1aac:	03 3f ff cd 	sethi  %hi(0xffff3400), %g1
    1ab0:	d0 a0 44 00 	sta  %o0, [ %g1 ] #ASI_SCRATCHPAD
    1ab4:	81 c3 e0 08 	retl 
    1ab8:	01 00 00 00 	nop 

00001abc <__ajit_ta_0__>:
    1abc:	91 d0 20 00 	ta  0
    1ac0:	01 00 00 00 	nop 
    1ac4:	01 00 00 00 	nop 
    1ac8:	81 c3 e0 08 	retl 
    1acc:	01 00 00 00 	nop 

00001ad0 <__ajit_fsqrtd__>:
    1ad0:	c1 1a 00 00 	ldd  [ %o0 ], %f0
    1ad4:	85 a0 05 40 	fsqrtd  %f0, %f2
    1ad8:	c5 3a 40 00 	std  %f2, [ %o1 ]
    1adc:	81 c3 e0 08 	retl 
    1ae0:	01 00 00 00 	nop 

00001ae4 <__ajit_fsqrts__>:
    1ae4:	c1 02 00 00 	ld  [ %o0 ], %f0
    1ae8:	83 a0 05 20 	fsqrts  %f0, %f1
    1aec:	c3 22 40 00 	st  %f1, [ %o1 ]
    1af0:	81 c3 e0 08 	retl 
    1af4:	01 00 00 00 	nop 

00001af8 <__ajit_fitod__>:
    1af8:	c1 02 00 00 	ld  [ %o0 ], %f0
    1afc:	85 a0 19 00 	fitod  %f0, %f2
    1b00:	c5 3a 40 00 	std  %f2, [ %o1 ]
    1b04:	81 c3 e0 08 	retl 
    1b08:	01 00 00 00 	nop 

00001b0c <__ajit_fitos__>:
    1b0c:	c1 02 00 00 	ld  [ %o0 ], %f0
    1b10:	83 a0 18 80 	fitos  %f0, %f1
    1b14:	c3 22 40 00 	st  %f1, [ %o1 ]
    1b18:	81 c3 e0 08 	retl 
    1b1c:	01 00 00 00 	nop 

00001b20 <__ajit_fdtoi__>:
    1b20:	c1 1a 00 00 	ldd  [ %o0 ], %f0
    1b24:	85 a0 1a 40 	fdtoi  %f0, %f2
    1b28:	c5 22 40 00 	st  %f2, [ %o1 ]
    1b2c:	81 c3 e0 08 	retl 
    1b30:	01 00 00 00 	nop 

00001b34 <__ajit_fstoi__>:
    1b34:	c1 02 00 00 	ld  [ %o0 ], %f0
    1b38:	83 a0 1a 20 	fstoi  %f0, %f1
    1b3c:	c3 22 40 00 	st  %f1, [ %o1 ]
    1b40:	81 c3 e0 08 	retl 
    1b44:	01 00 00 00 	nop 

00001b48 <cortos_init_logging>:
    1b48:	84 10 20 01 	mov  1, %g2	! 1 <_start+0x1>
    1b4c:	03 00 00 44 	sethi  %hi(0x11000), %g1
    1b50:	82 10 60 f0 	or  %g1, 0xf0, %g1	! 110f0 <allocatedLocksNc>
    1b54:	c4 28 60 04 	stb  %g2, [ %g1 + 4 ]
    1b58:	05 00 00 4c 	sethi  %hi(0x13000), %g2
    1b5c:	03 00 00 44 	sethi  %hi(0x11000), %g1
    1b60:	84 10 a0 04 	or  %g2, 4, %g2
    1b64:	81 c3 e0 08 	retl 
    1b68:	c4 20 60 08 	st  %g2, [ %g1 + 8 ]

00001b6c <__cortos_log_printf>:
    1b6c:	9d e3 bb 80 	save  %sp, -1152, %sp
    1b70:	21 00 00 44 	sethi  %hi(0x11000), %l0
    1b74:	fa 27 a0 58 	st  %i5, [ %fp + 0x58 ]
    1b78:	7f ff f9 cf 	call  2b4 <cortos_lock_acquire_buzy>
    1b7c:	d0 04 20 08 	ld  [ %l0 + 8 ], %o0
    1b80:	40 00 05 9c 	call  31f0 <cortos_get_clock_time>
    1b84:	01 00 00 00 	nop 
    1b88:	a3 47 40 00 	rd  %asr29, %l1
    1b8c:	82 10 00 11 	mov  %l1, %g1
    1b90:	d0 3f bb f0 	std  %o0, [ %fp + -1040 ]
    1b94:	96 08 60 ff 	and  %g1, 0xff, %o3
    1b98:	95 30 60 08 	srl  %g1, 8, %o2
    1b9c:	c2 07 bb f0 	ld  [ %fp + -1040 ], %g1
    1ba0:	c2 23 a0 60 	st  %g1, [ %sp + 0x60 ]
    1ba4:	c2 07 bb f4 	ld  [ %fp + -1036 ], %g1
    1ba8:	92 10 00 18 	mov  %i0, %o1
    1bac:	c2 23 a0 64 	st  %g1, [ %sp + 0x64 ]
    1bb0:	98 10 00 19 	mov  %i1, %o4
    1bb4:	9a 10 00 1b 	mov  %i3, %o5
    1bb8:	94 0a a0 ff 	and  %o2, 0xff, %o2
    1bbc:	f4 23 a0 5c 	st  %i2, [ %sp + 0x5c ]
    1bc0:	11 00 00 40 	sethi  %hi(0x10000), %o0
    1bc4:	40 00 0a 64 	call  4554 <ee_printf>
    1bc8:	90 12 21 70 	or  %o0, 0x170, %o0	! 10170 <__clz_tab+0x100>
    1bcc:	94 07 a0 58 	add  %fp, 0x58, %o2
    1bd0:	b0 10 00 08 	mov  %o0, %i0
    1bd4:	d4 27 bb fc 	st  %o2, [ %fp + -1028 ]
    1bd8:	ba 07 bc 00 	add  %fp, -1024, %i5
    1bdc:	92 10 00 1c 	mov  %i4, %o1
    1be0:	40 00 07 23 	call  386c <ee_vsprintf>
    1be4:	90 10 00 1d 	mov  %i5, %o0
    1be8:	c2 0f bc 00 	ldub  [ %fp + -1024 ], %g1
    1bec:	91 28 60 18 	sll  %g1, 0x18, %o0
    1bf0:	80 a2 20 00 	cmp  %o0, 0
    1bf4:	22 80 00 0c 	be,a   1c24 <__cortos_log_printf+0xb8>
    1bf8:	11 00 00 40 	sethi  %hi(0x10000), %o0
    1bfc:	ba 27 40 18 	sub  %i5, %i0, %i5
    1c00:	40 00 0a 47 	call  451c <uart_send_char>
    1c04:	91 3a 20 18 	sra  %o0, 0x18, %o0
    1c08:	b0 06 20 01 	inc  %i0
    1c0c:	c2 0f 40 18 	ldub  [ %i5 + %i0 ], %g1
    1c10:	91 28 60 18 	sll  %g1, 0x18, %o0
    1c14:	80 a2 20 00 	cmp  %o0, 0
    1c18:	12 bf ff fa 	bne  1c00 <__cortos_log_printf+0x94>
    1c1c:	01 00 00 00 	nop 
    1c20:	11 00 00 40 	sethi  %hi(0x10000), %o0
    1c24:	40 00 0a 4c 	call  4554 <ee_printf>
    1c28:	90 12 23 70 	or  %o0, 0x370, %o0	! 10370 <__clz_tab+0x300>
    1c2c:	b0 02 00 18 	add  %o0, %i0, %i0
    1c30:	7f ff f9 bb 	call  31c <cortos_lock_release>
    1c34:	d0 04 20 08 	ld  [ %l0 + 8 ], %o0
    1c38:	81 c7 e0 08 	ret 
    1c3c:	81 e8 00 00 	restore 

00001c40 <cvt>:
    1c40:	9d e3 bf 90 	save  %sp, -112, %sp
    1c44:	f0 3f bf f8 	std  %i0, [ %fp + -8 ]
    1c48:	de 07 a0 5c 	ld  [ %fp + 0x5c ], %o7
    1c4c:	d5 1f bf f8 	ldd  [ %fp + -8 ], %f10
    1c50:	80 a6 a0 00 	cmp  %i2, 0
    1c54:	06 80 00 05 	bl  1c68 <cvt+0x28>
    1c58:	84 10 20 00 	clr  %g2
    1c5c:	80 a6 a0 4e 	cmp  %i2, 0x4e
    1c60:	04 80 00 a6 	ble  1ef8 <cvt+0x2b8>
    1c64:	84 10 20 4e 	mov  0x4e, %g2
    1c68:	03 00 00 40 	sethi  %hi(0x10000), %g1
    1c6c:	d1 18 61 a0 	ldd  [ %g1 + 0x1a0 ], %f8	! 101a0 <__clz_tab+0x130>
    1c70:	81 aa 8a c8 	fcmped  %f10, %f8
    1c74:	01 00 00 00 	nop 
    1c78:	09 80 00 9a 	fbl  1ee0 <cvt+0x2a0>
    1c7c:	86 10 20 01 	mov  1, %g3	! 1 <_start+0x1>
    1c80:	c0 27 00 00 	clr  [ %i4 ]
    1c84:	91 a0 1a 4a 	fdtoi  %f10, %f8
    1c88:	d9 18 61 a0 	ldd  [ %g1 + 0x1a0 ], %f12
    1c8c:	91 a0 19 08 	fitod  %f8, %f8
    1c90:	81 aa 0a 4c 	fcmpd  %f8, %f12
    1c94:	01 00 00 00 	nop 
    1c98:	13 80 00 66 	fbe  1e30 <cvt+0x1f0>
    1c9c:	95 a2 88 c8 	fsubd  %f10, %f8, %f10
    1ca0:	03 00 00 40 	sethi  %hi(0x10000), %g1
    1ca4:	9a 07 60 50 	add  %i5, 0x50, %o5
    1ca8:	35 00 00 40 	sethi  %hi(0x10000), %i2
    1cac:	e5 18 61 b0 	ldd  [ %g1 + 0x1b0 ], %f18
    1cb0:	b8 10 00 0d 	mov  %o5, %i4
    1cb4:	03 00 00 40 	sethi  %hi(0x10000), %g1
    1cb8:	86 10 20 00 	clr  %g3
    1cbc:	dd 1e a1 a8 	ldd  [ %i2 + 0x1a8 ], %f14
    1cc0:	e1 18 61 a0 	ldd  [ %g1 + 0x1a0 ], %f16
    1cc4:	99 a2 09 ce 	fdivd  %f8, %f14, %f12
    1cc8:	91 a0 1a 4c 	fdtoi  %f12, %f8
    1ccc:	91 a0 19 08 	fitod  %f8, %f8
    1cd0:	99 a3 08 c8 	fsubd  %f12, %f8, %f12
    1cd4:	99 a3 08 52 	faddd  %f12, %f18, %f12
    1cd8:	99 a3 09 4e 	fmuld  %f12, %f14, %f12
    1cdc:	99 a0 1a 4c 	fdtoi  %f12, %f12
    1ce0:	d9 27 bf f4 	st  %f12, [ %fp + -12 ]
    1ce4:	b8 07 3f ff 	add  %i4, -1, %i4
    1ce8:	c2 07 bf f4 	ld  [ %fp + -12 ], %g1
    1cec:	88 00 60 30 	add  %g1, 0x30, %g4
    1cf0:	c8 2f 00 00 	stb  %g4, [ %i4 ]
    1cf4:	b2 10 00 04 	mov  %g4, %i1
    1cf8:	81 aa 0a 50 	fcmpd  %f8, %f16
    1cfc:	01 00 00 00 	nop 
    1d00:	03 bf ff f1 	fbne  1cc4 <cvt+0x84>
    1d04:	86 00 e0 01 	inc  %g3
    1d08:	80 a3 40 1c 	cmp  %o5, %i4
    1d0c:	08 80 00 0e 	bleu  1d44 <cvt+0x104>
    1d10:	82 10 00 1d 	mov  %i5, %g1
    1d14:	b0 07 60 4f 	add  %i5, 0x4f, %i0
    1d18:	88 10 00 1c 	mov  %i4, %g4
    1d1c:	10 80 00 04 	b  1d2c <cvt+0xec>
    1d20:	b4 10 00 1d 	mov  %i5, %i2
    1d24:	f2 09 20 01 	ldub  [ %g4 + 1 ], %i1
    1d28:	88 01 20 01 	inc  %g4
    1d2c:	f2 2e 80 00 	stb  %i1, [ %i2 ]
    1d30:	80 a1 00 18 	cmp  %g4, %i0
    1d34:	12 bf ff fc 	bne  1d24 <cvt+0xe4>
    1d38:	b4 06 a0 01 	inc  %i2
    1d3c:	82 23 40 1c 	sub  %o5, %i4, %g1
    1d40:	82 07 40 01 	add  %i5, %g1, %g1
    1d44:	80 a3 e0 00 	cmp  %o7, 0
    1d48:	12 80 00 03 	bne  1d54 <cvt+0x114>
    1d4c:	84 07 40 02 	add  %i5, %g2, %g2
    1d50:	84 00 80 03 	add  %g2, %g3, %g2
    1d54:	80 a0 80 1d 	cmp  %g2, %i5
    1d58:	0a 80 00 5f 	bcs  1ed4 <cvt+0x294>
    1d5c:	c6 26 c0 00 	st  %g3, [ %i3 ]
    1d60:	80 a0 40 02 	cmp  %g1, %g2
    1d64:	18 80 00 17 	bgu  1dc0 <cvt+0x180>
    1d68:	88 07 60 50 	add  %i5, 0x50, %g4
    1d6c:	35 00 00 40 	sethi  %hi(0x10000), %i2
    1d70:	80 a0 40 04 	cmp  %g1, %g4
    1d74:	1a 80 00 13 	bcc  1dc0 <cvt+0x180>
    1d78:	b4 16 a1 a8 	or  %i2, 0x1a8, %i2
    1d7c:	10 80 00 05 	b  1d90 <cvt+0x150>
    1d80:	d9 1e 80 00 	ldd  [ %i2 ], %f12
    1d84:	80 a0 40 04 	cmp  %g1, %g4
    1d88:	02 80 00 0f 	be  1dc4 <cvt+0x184>
    1d8c:	80 a0 80 04 	cmp  %g2, %g4
    1d90:	95 a2 89 4c 	fmuld  %f10, %f12, %f10
    1d94:	91 a0 1a 4a 	fdtoi  %f10, %f8
    1d98:	91 a0 19 08 	fitod  %f8, %f8
    1d9c:	9d a0 1a 48 	fdtoi  %f8, %f14
    1da0:	dd 27 bf f4 	st  %f14, [ %fp + -12 ]
    1da4:	c6 07 bf f4 	ld  [ %fp + -12 ], %g3
    1da8:	86 00 e0 30 	add  %g3, 0x30, %g3
    1dac:	c6 28 40 00 	stb  %g3, [ %g1 ]
    1db0:	82 00 60 01 	inc  %g1
    1db4:	80 a0 80 01 	cmp  %g2, %g1
    1db8:	1a bf ff f3 	bcc  1d84 <cvt+0x144>
    1dbc:	95 a2 88 c8 	fsubd  %f10, %f8, %f10
    1dc0:	80 a0 80 04 	cmp  %g2, %g4
    1dc4:	1a 80 00 4a 	bcc  1eec <cvt+0x2ac>
    1dc8:	88 10 00 02 	mov  %g2, %g4
    1dcc:	f8 08 80 00 	ldub  [ %g2 ], %i4
    1dd0:	b8 07 20 05 	add  %i4, 5, %i4
    1dd4:	82 10 00 1c 	mov  %i4, %g1
    1dd8:	f8 28 80 00 	stb  %i4, [ %g2 ]
    1ddc:	86 10 20 30 	mov  0x30, %g3
    1de0:	b8 10 20 31 	mov  0x31, %i4
    1de4:	83 28 60 18 	sll  %g1, 0x18, %g1
    1de8:	83 38 60 18 	sra  %g1, 0x18, %g1
    1dec:	80 a0 60 39 	cmp  %g1, 0x39
    1df0:	24 80 00 0e 	ble,a   1e28 <cvt+0x1e8>
    1df4:	c0 29 00 00 	clrb  [ %g4 ]
    1df8:	80 a0 80 1d 	cmp  %g2, %i5
    1dfc:	08 80 00 2a 	bleu  1ea4 <cvt+0x264>
    1e00:	c6 28 80 00 	stb  %g3, [ %g2 ]
    1e04:	c2 08 bf ff 	ldub  [ %g2 + -1 ], %g1
    1e08:	82 00 60 01 	inc  %g1
    1e0c:	c2 28 bf ff 	stb  %g1, [ %g2 + -1 ]
    1e10:	83 28 60 18 	sll  %g1, 0x18, %g1
    1e14:	83 38 60 18 	sra  %g1, 0x18, %g1
    1e18:	80 a0 60 39 	cmp  %g1, 0x39
    1e1c:	14 bf ff f7 	bg  1df8 <cvt+0x1b8>
    1e20:	84 00 bf ff 	add  %g2, -1, %g2
    1e24:	c0 29 00 00 	clrb  [ %g4 ]
    1e28:	81 c7 e0 08 	ret 
    1e2c:	91 e8 00 1d 	restore  %g0, %i5, %o0
    1e30:	81 aa 8a cc 	fcmped  %f10, %f12
    1e34:	01 00 00 00 	nop 
    1e38:	1d 80 00 32 	fbule  1f00 <cvt+0x2c0>
    1e3c:	01 00 00 00 	nop 
    1e40:	35 00 00 40 	sethi  %hi(0x10000), %i2
    1e44:	03 00 00 40 	sethi  %hi(0x10000), %g1
    1e48:	d9 1e a1 a8 	ldd  [ %i2 + 0x1a8 ], %f12
    1e4c:	d1 18 61 b8 	ldd  [ %g1 + 0x1b8 ], %f8
    1e50:	99 a2 89 4c 	fmuld  %f10, %f12, %f12
    1e54:	86 10 20 00 	clr  %g3
    1e58:	e1 1e a1 a8 	ldd  [ %i2 + 0x1a8 ], %f16
    1e5c:	9d a0 00 28 	fmovs  %f8, %f14
    1e60:	81 ab 0a c8 	fcmped  %f12, %f8
    1e64:	01 00 00 00 	nop 
    1e68:	09 80 00 06 	fbl  1e80 <cvt+0x240>
    1e6c:	9f a0 00 29 	fmovs  %f9, %f15
    1e70:	10 bf ff b5 	b  1d44 <cvt+0x104>
    1e74:	82 10 00 1d 	mov  %i5, %g1
    1e78:	99 a0 00 28 	fmovs  %f8, %f12
    1e7c:	9b a0 00 29 	fmovs  %f9, %f13
    1e80:	91 a3 09 50 	fmuld  %f12, %f16, %f8
    1e84:	81 aa 0a ce 	fcmped  %f8, %f14
    1e88:	01 00 00 00 	nop 
    1e8c:	09 bf ff fb 	fbl  1e78 <cvt+0x238>
    1e90:	86 00 ff ff 	add  %g3, -1, %g3
    1e94:	82 10 00 1d 	mov  %i5, %g1
    1e98:	95 a0 00 2c 	fmovs  %f12, %f10
    1e9c:	10 bf ff aa 	b  1d44 <cvt+0x104>
    1ea0:	97 a0 00 2d 	fmovs  %f13, %f11
    1ea4:	f8 28 80 00 	stb  %i4, [ %g2 ]
    1ea8:	c2 06 c0 00 	ld  [ %i3 ], %g1
    1eac:	82 00 60 01 	inc  %g1
    1eb0:	80 a3 e0 00 	cmp  %o7, 0
    1eb4:	12 80 00 06 	bne  1ecc <cvt+0x28c>
    1eb8:	c2 26 c0 00 	st  %g1, [ %i3 ]
    1ebc:	80 a1 00 1d 	cmp  %g4, %i5
    1ec0:	38 80 00 02 	bgu,a   1ec8 <cvt+0x288>
    1ec4:	c6 29 00 00 	stb  %g3, [ %g4 ]
    1ec8:	88 01 20 01 	inc  %g4
    1ecc:	10 bf ff c6 	b  1de4 <cvt+0x1a4>
    1ed0:	c2 08 80 00 	ldub  [ %g2 ], %g1
    1ed4:	c0 2f 40 00 	clrb  [ %i5 ]
    1ed8:	81 c7 e0 08 	ret 
    1edc:	91 e8 00 1d 	restore  %g0, %i5, %o0
    1ee0:	95 a0 00 aa 	fnegs  %f10, %f10
    1ee4:	10 bf ff 68 	b  1c84 <cvt+0x44>
    1ee8:	c6 27 00 00 	st  %g3, [ %i4 ]
    1eec:	c0 2f 60 4f 	clrb  [ %i5 + 0x4f ]
    1ef0:	81 c7 e0 08 	ret 
    1ef4:	91 e8 00 1d 	restore  %g0, %i5, %o0
    1ef8:	10 bf ff 5c 	b  1c68 <cvt+0x28>
    1efc:	84 10 00 1a 	mov  %i2, %g2
    1f00:	82 10 00 1d 	mov  %i5, %g1
    1f04:	10 bf ff 90 	b  1d44 <cvt+0x104>
    1f08:	86 10 20 00 	clr  %g3

00001f0c <__modf>:
    1f0c:	9c 03 bf b0 	add  %sp, -80, %sp
    1f10:	d0 3b a0 48 	std  %o0, [ %sp + 0x48 ]
    1f14:	c1 1b a0 48 	ldd  [ %sp + 0x48 ], %f0
    1f18:	9c 23 bf b0 	sub  %sp, -80, %sp
    1f1c:	91 a0 1a 40 	fdtoi  %f0, %f8
    1f20:	91 a0 19 08 	fitod  %f8, %f8
    1f24:	81 a0 08 c8 	fsubd  %f0, %f8, %f0
    1f28:	81 c3 e0 08 	retl 
    1f2c:	d1 3a 80 00 	std  %f8, [ %o2 ]

00001f30 <ecvt>:
    1f30:	9d e3 bf 98 	save  %sp, -104, %sp
    1f34:	82 10 20 01 	mov  1, %g1
    1f38:	90 10 00 18 	mov  %i0, %o0
    1f3c:	92 10 00 19 	mov  %i1, %o1
    1f40:	c2 23 a0 5c 	st  %g1, [ %sp + 0x5c ]
    1f44:	94 10 00 1a 	mov  %i2, %o2
    1f48:	96 10 00 1b 	mov  %i3, %o3
    1f4c:	98 10 00 1c 	mov  %i4, %o4
    1f50:	1b 00 00 44 	sethi  %hi(0x11000), %o5
    1f54:	7f ff ff 3b 	call  1c40 <cvt>
    1f58:	9a 13 60 10 	or  %o5, 0x10, %o5	! 11010 <CVTBUF>
    1f5c:	81 c7 e0 08 	ret 
    1f60:	91 e8 00 08 	restore  %g0, %o0, %o0

00001f64 <ecvtbuf>:
    1f64:	9d e3 bf 98 	save  %sp, -104, %sp
    1f68:	82 10 20 01 	mov  1, %g1
    1f6c:	90 10 00 18 	mov  %i0, %o0
    1f70:	92 10 00 19 	mov  %i1, %o1
    1f74:	c2 23 a0 5c 	st  %g1, [ %sp + 0x5c ]
    1f78:	94 10 00 1a 	mov  %i2, %o2
    1f7c:	96 10 00 1b 	mov  %i3, %o3
    1f80:	98 10 00 1c 	mov  %i4, %o4
    1f84:	7f ff ff 2f 	call  1c40 <cvt>
    1f88:	9a 10 00 1d 	mov  %i5, %o5
    1f8c:	81 c7 e0 08 	ret 
    1f90:	91 e8 00 08 	restore  %g0, %o0, %o0

00001f94 <fcvt>:
    1f94:	9d e3 bf 98 	save  %sp, -104, %sp
    1f98:	1b 00 00 44 	sethi  %hi(0x11000), %o5
    1f9c:	c0 23 a0 5c 	clr  [ %sp + 0x5c ]
    1fa0:	90 10 00 18 	mov  %i0, %o0
    1fa4:	92 10 00 19 	mov  %i1, %o1
    1fa8:	94 10 00 1a 	mov  %i2, %o2
    1fac:	96 10 00 1b 	mov  %i3, %o3
    1fb0:	98 10 00 1c 	mov  %i4, %o4
    1fb4:	7f ff ff 23 	call  1c40 <cvt>
    1fb8:	9a 13 60 10 	or  %o5, 0x10, %o5
    1fbc:	81 c7 e0 08 	ret 
    1fc0:	91 e8 00 08 	restore  %g0, %o0, %o0

00001fc4 <fcvtbuf>:
    1fc4:	9d e3 bf 98 	save  %sp, -104, %sp
    1fc8:	c0 23 a0 5c 	clr  [ %sp + 0x5c ]
    1fcc:	90 10 00 18 	mov  %i0, %o0
    1fd0:	92 10 00 19 	mov  %i1, %o1
    1fd4:	94 10 00 1a 	mov  %i2, %o2
    1fd8:	96 10 00 1b 	mov  %i3, %o3
    1fdc:	98 10 00 1c 	mov  %i4, %o4
    1fe0:	7f ff ff 18 	call  1c40 <cvt>
    1fe4:	9a 10 00 1d 	mov  %i5, %o5
    1fe8:	81 c7 e0 08 	ret 
    1fec:	91 e8 00 08 	restore  %g0, %o0, %o0

00001ff0 <ajit_initialize_sw_trap_handlers_to_null>:
    1ff0:	03 00 00 44 	sethi  %hi(0x11000), %g1
    1ff4:	82 10 60 a4 	or  %g1, 0xa4, %g1	! 110a4 <ajit_global_sw_trap_handlers>
    1ff8:	84 00 60 40 	add  %g1, 0x40, %g2
    1ffc:	c0 20 40 00 	clr  [ %g1 ]
    2000:	82 00 60 04 	add  %g1, 4, %g1
    2004:	80 a0 40 02 	cmp  %g1, %g2
    2008:	32 bf ff fe 	bne,a   2000 <ajit_initialize_sw_trap_handlers_to_null+0x10>
    200c:	c0 20 40 00 	clr  [ %g1 ]
    2010:	81 c3 e0 08 	retl 
    2014:	01 00 00 00 	nop 

00002018 <ajit_set_sw_trap_handler>:
    2018:	80 a2 20 0f 	cmp  %o0, 0xf
    201c:	18 80 00 05 	bgu  2030 <ajit_set_sw_trap_handler+0x18>
    2020:	91 2a 20 02 	sll  %o0, 2, %o0
    2024:	03 00 00 44 	sethi  %hi(0x11000), %g1
    2028:	82 10 60 a4 	or  %g1, 0xa4, %g1	! 110a4 <ajit_global_sw_trap_handlers>
    202c:	d2 20 40 08 	st  %o1, [ %g1 + %o0 ]
    2030:	81 c3 e0 08 	retl 
    2034:	01 00 00 00 	nop 

00002038 <ajit_generic_sw_trap_handler>:
    2038:	9d e3 bf a0 	save  %sp, -96, %sp
    203c:	b1 36 20 04 	srl  %i0, 4, %i0
    2040:	82 0e 20 ff 	and  %i0, 0xff, %g1
    2044:	82 00 7f 80 	add  %g1, -128, %g1
    2048:	80 a0 60 0f 	cmp  %g1, 0xf
    204c:	18 80 00 0d 	bgu  2080 <ajit_generic_sw_trap_handler+0x48>
    2050:	83 28 60 02 	sll  %g1, 2, %g1
    2054:	05 00 00 44 	sethi  %hi(0x11000), %g2
    2058:	84 10 a0 a4 	or  %g2, 0xa4, %g2	! 110a4 <ajit_global_sw_trap_handlers>
    205c:	c2 00 80 01 	ld  [ %g2 + %g1 ], %g1
    2060:	80 a0 60 00 	cmp  %g1, 0
    2064:	02 80 00 07 	be  2080 <ajit_generic_sw_trap_handler+0x48>
    2068:	90 10 00 19 	mov  %i1, %o0
    206c:	92 10 00 1a 	mov  %i2, %o1
    2070:	9f c0 40 00 	call  %g1
    2074:	94 10 00 1b 	mov  %i3, %o2
    2078:	81 c7 e0 08 	ret 
    207c:	81 e8 00 00 	restore 
    2080:	91 d0 20 00 	ta  0
    2084:	81 c7 e0 08 	ret 
    2088:	81 e8 00 00 	restore 

0000208c <generateNicQueue>:
    208c:	9d e3 bf a0 	save  %sp, -96, %sp
    2090:	94 10 20 01 	mov  1, %o2
    2094:	fa 07 a0 40 	ld  [ %fp + 0x40 ], %i5
    2098:	92 10 00 19 	mov  %i1, %o1
    209c:	7f ff f8 a6 	call  334 <cortos_reserveQueue>
    20a0:	90 10 00 18 	mov  %i0, %o0
    20a4:	92 10 00 19 	mov  %i1, %o1
    20a8:	b8 10 00 08 	mov  %o0, %i4
    20ac:	94 10 20 01 	mov  1, %o2
    20b0:	7f ff f8 a1 	call  334 <cortos_reserveQueue>
    20b4:	90 10 00 18 	mov  %i0, %o0
    20b8:	92 10 00 19 	mov  %i1, %o1
    20bc:	b6 10 00 08 	mov  %o0, %i3
    20c0:	94 10 20 01 	mov  1, %o2
    20c4:	90 10 00 18 	mov  %i0, %o0
    20c8:	7f ff f8 9b 	call  334 <cortos_reserveQueue>
    20cc:	b0 10 00 1d 	mov  %i5, %i0
    20d0:	f6 27 60 04 	st  %i3, [ %i5 + 4 ]
    20d4:	d0 27 40 00 	st  %o0, [ %i5 ]
    20d8:	f8 27 60 08 	st  %i4, [ %i5 + 8 ]
    20dc:	81 c7 e0 0c 	jmp  %i7 + 0xc
    20e0:	81 e8 00 00 	restore 

000020e4 <loadEthernetHeader>:
    20e4:	03 02 80 07 	sethi  %hi(0xa001c00), %g1
    20e8:	82 10 63 0e 	or  %g1, 0x30e, %g1	! a001f0e <allocatedLocks+0x9ff0d1e>
    20ec:	c2 22 20 18 	st  %g1, [ %o0 + 0x18 ]
    20f0:	03 05 5c 78 	sethi  %hi(0x1571e000), %g1
    20f4:	82 10 61 30 	or  %g1, 0x130, %g1	! 1571e130 <allocatedLocks+0x1570cf40>
    20f8:	c2 22 20 1c 	st  %g1, [ %o0 + 0x1c ]
    20fc:	03 1a 15 00 	sethi  %hi(0x68540000), %g1
    2100:	82 10 60 08 	or  %g1, 8, %g1	! 68540008 <allocatedLocks+0x6852ee18>
    2104:	c2 22 20 20 	st  %g1, [ %o0 + 0x20 ]
    2108:	03 02 9d 81 	sethi  %hi(0xa760400), %g1
    210c:	82 10 61 35 	or  %g1, 0x135, %g1	! a760535 <allocatedLocks+0xa74f345>
    2110:	81 c3 e0 08 	retl 
    2114:	c2 22 20 24 	st  %g1, [ %o0 + 0x24 ]

00002118 <readNicReg>:
    2118:	91 2a 20 02 	sll  %o0, 2, %o0
    211c:	03 00 00 41 	sethi  %hi(0x10400), %g1
    2120:	d2 00 63 80 	ld  [ %g1 + 0x380 ], %o1	! 10780 <NIC_REG>
    2124:	92 02 40 08 	add  %o1, %o0, %o1
    2128:	91 3a 60 1f 	sra  %o1, 0x1f, %o0
    212c:	82 13 c0 00 	mov  %o7, %g1
    2130:	7f ff fb 4c 	call  e60 <__ajit_load_word_from_physical_address__>
    2134:	9e 10 40 00 	mov  %g1, %o7

00002138 <readNicRegs>:
    2138:	9d e3 bf 98 	save  %sp, -104, %sp
    213c:	33 00 00 40 	sethi  %hi(0x10000), %i1
    2140:	35 00 00 40 	sethi  %hi(0x10000), %i2
    2144:	37 00 00 40 	sethi  %hi(0x10000), %i3
    2148:	39 00 00 40 	sethi  %hi(0x10000), %i4
    214c:	ba 10 20 00 	clr  %i5
    2150:	b2 16 61 c0 	or  %i1, 0x1c0, %i1
    2154:	b4 16 a1 c8 	or  %i2, 0x1c8, %i2
    2158:	b6 16 e0 10 	or  %i3, 0x10, %i3
    215c:	b8 17 21 d8 	or  %i4, 0x1d8, %i4
    2160:	7f ff ff ee 	call  2118 <readNicReg>
    2164:	90 10 00 1d 	mov  %i5, %o0
    2168:	9a 10 00 1d 	mov  %i5, %o5
    216c:	d0 23 a0 5c 	st  %o0, [ %sp + 0x5c ]
    2170:	92 10 00 1a 	mov  %i2, %o1
    2174:	90 10 00 19 	mov  %i1, %o0
    2178:	94 10 00 1b 	mov  %i3, %o2
    217c:	96 10 20 75 	mov  0x75, %o3
    2180:	7f ff fe 7b 	call  1b6c <__cortos_log_printf>
    2184:	98 10 00 1c 	mov  %i4, %o4
    2188:	ba 07 60 01 	inc  %i5
    218c:	80 a7 60 40 	cmp  %i5, 0x40
    2190:	12 bf ff f4 	bne  2160 <readNicRegs+0x28>
    2194:	01 00 00 00 	nop 
    2198:	81 c7 e0 08 	ret 
    219c:	81 e8 00 00 	restore 

000021a0 <writeNicReg>:
    21a0:	83 2a 20 02 	sll  %o0, 2, %g1
    21a4:	05 00 00 41 	sethi  %hi(0x10400), %g2
    21a8:	90 10 00 09 	mov  %o1, %o0
    21ac:	d4 00 a3 80 	ld  [ %g2 + 0x380 ], %o2
    21b0:	94 02 80 01 	add  %o2, %g1, %o2
    21b4:	93 3a a0 1f 	sra  %o2, 0x1f, %o1
    21b8:	82 13 c0 00 	mov  %o7, %g1
    21bc:	7f ff fa f0 	call  d7c <__ajit_store_word_to_physical_address__>
    21c0:	9e 10 40 00 	mov  %g1, %o7

000021c4 <nicRegConfig>:
    21c4:	9d e3 bf 98 	save  %sp, -104, %sp
    21c8:	7f ff ff d4 	call  2118 <readNicReg>
    21cc:	90 10 20 16 	mov  0x16, %o0
    21d0:	37 00 00 40 	sethi  %hi(0x10000), %i3
    21d4:	9a 10 00 08 	mov  %o0, %o5
    21d8:	39 00 00 40 	sethi  %hi(0x10000), %i4
    21dc:	3b 00 00 40 	sethi  %hi(0x10000), %i5
    21e0:	92 17 21 c8 	or  %i4, 0x1c8, %o1
    21e4:	94 17 60 00 	mov  %i5, %o2
    21e8:	96 10 20 5a 	mov  0x5a, %o3
    21ec:	90 16 e1 c0 	or  %i3, 0x1c0, %o0
    21f0:	19 00 00 40 	sethi  %hi(0x10000), %o4
    21f4:	7f ff fe 5e 	call  1b6c <__cortos_log_printf>
    21f8:	98 13 21 f0 	or  %o4, 0x1f0, %o4	! 101f0 <__clz_tab+0x180>
    21fc:	7f ff ff c7 	call  2118 <readNicReg>
    2200:	90 10 20 02 	mov  2, %o0
    2204:	94 17 60 00 	mov  %i5, %o2
    2208:	9a 10 00 08 	mov  %o0, %o5
    220c:	96 10 20 5d 	mov  0x5d, %o3
    2210:	92 17 21 c8 	or  %i4, 0x1c8, %o1
    2214:	21 00 00 40 	sethi  %hi(0x10000), %l0
    2218:	f2 23 a0 5c 	st  %i1, [ %sp + 0x5c ]
    221c:	98 14 22 08 	or  %l0, 0x208, %o4
    2220:	7f ff fe 53 	call  1b6c <__cortos_log_printf>
    2224:	90 16 e1 c0 	or  %i3, 0x1c0, %o0
    2228:	90 10 20 01 	mov  1, %o0
    222c:	7f ff ff dd 	call  21a0 <writeNicReg>
    2230:	92 10 20 01 	mov  1, %o1
    2234:	90 10 20 02 	mov  2, %o0
    2238:	7f ff ff da 	call  21a0 <writeNicReg>
    223c:	92 10 00 19 	mov  %i1, %o1
    2240:	92 10 00 1a 	mov  %i2, %o1
    2244:	7f ff ff d7 	call  21a0 <writeNicReg>
    2248:	90 10 20 0a 	mov  0xa, %o0
    224c:	92 10 00 18 	mov  %i0, %o1
    2250:	7f ff ff d4 	call  21a0 <writeNicReg>
    2254:	90 10 20 12 	mov  0x12, %o0
    2258:	7f ff ff b0 	call  2118 <readNicReg>
    225c:	90 10 20 02 	mov  2, %o0
    2260:	92 17 21 c8 	or  %i4, 0x1c8, %o1
    2264:	b4 10 00 08 	mov  %o0, %i2
    2268:	f2 23 a0 5c 	st  %i1, [ %sp + 0x5c ]
    226c:	90 16 e1 c0 	or  %i3, 0x1c0, %o0
    2270:	94 17 60 00 	mov  %i5, %o2
    2274:	96 10 20 66 	mov  0x66, %o3
    2278:	98 14 22 08 	or  %l0, 0x208, %o4
    227c:	7f ff fe 3c 	call  1b6c <__cortos_log_printf>
    2280:	9a 10 00 1a 	mov  %i2, %o5
    2284:	80 a6 40 1a 	cmp  %i1, %i2
    2288:	02 80 00 03 	be  2294 <nicRegConfig+0xd0>
    228c:	90 10 20 00 	clr  %o0
    2290:	30 80 00 00 	b,a   2290 <nicRegConfig+0xcc>
    2294:	92 10 20 00 	clr  %o1
    2298:	b0 16 e1 c0 	or  %i3, 0x1c0, %i0
    229c:	7f ff ff c1 	call  21a0 <writeNicReg>
    22a0:	b2 17 21 c8 	or  %i4, 0x1c8, %i1
    22a4:	39 00 00 40 	sethi  %hi(0x10000), %i4
    22a8:	b4 17 60 00 	mov  %i5, %i2
    22ac:	b6 10 20 6c 	mov  0x6c, %i3
    22b0:	7f ff fe 2f 	call  1b6c <__cortos_log_printf>
    22b4:	99 ef 22 30 	restore  %i4, 0x230, %o4

000022b8 <readMemory>:
    22b8:	9d e3 bf 88 	save  %sp, -120, %sp
    22bc:	92 10 00 19 	mov  %i1, %o1
    22c0:	7f ff fa e8 	call  e60 <__ajit_load_word_from_physical_address__>
    22c4:	90 10 00 18 	mov  %i0, %o0
    22c8:	9a 10 00 18 	mov  %i0, %o5
    22cc:	d0 23 a0 68 	st  %o0, [ %sp + 0x68 ]
    22d0:	f0 23 a0 60 	st  %i0, [ %sp + 0x60 ]
    22d4:	f2 23 a0 64 	st  %i1, [ %sp + 0x64 ]
    22d8:	f0 3f bf f8 	std  %i0, [ %fp + -8 ]
    22dc:	f2 23 a0 5c 	st  %i1, [ %sp + 0x5c ]
    22e0:	11 00 00 40 	sethi  %hi(0x10000), %o0
    22e4:	13 00 00 40 	sethi  %hi(0x10000), %o1
    22e8:	15 00 00 40 	sethi  %hi(0x10000), %o2
    22ec:	92 12 61 c8 	or  %o1, 0x1c8, %o1
    22f0:	94 12 a0 20 	or  %o2, 0x20, %o2
    22f4:	96 10 20 8d 	mov  0x8d, %o3
    22f8:	19 00 00 40 	sethi  %hi(0x10000), %o4
    22fc:	90 12 21 c0 	or  %o0, 0x1c0, %o0
    2300:	7f ff fe 1b 	call  1b6c <__cortos_log_printf>
    2304:	98 13 22 48 	or  %o4, 0x248, %o4
    2308:	81 c7 e0 08 	ret 
    230c:	81 e8 00 00 	restore 

00002310 <printMemory>:
    2310:	9d e3 bf 98 	save  %sp, -104, %sp
    2314:	33 00 00 40 	sethi  %hi(0x10000), %i1
    2318:	35 00 00 40 	sethi  %hi(0x10000), %i2
    231c:	37 00 00 40 	sethi  %hi(0x10000), %i3
    2320:	21 00 00 40 	sethi  %hi(0x10000), %l0
    2324:	90 16 61 c0 	or  %i1, 0x1c0, %o0
    2328:	92 16 a1 c8 	or  %i2, 0x1c8, %o1
    232c:	94 16 e0 30 	or  %i3, 0x30, %o2
    2330:	98 14 22 70 	or  %l0, 0x270, %o4
    2334:	96 10 20 93 	mov  0x93, %o3
    2338:	9a 10 20 00 	clr  %o5
    233c:	23 00 00 41 	sethi  %hi(0x10400), %l1
    2340:	31 00 00 40 	sethi  %hi(0x10000), %i0
    2344:	7f ff fe 0a 	call  1b6c <__cortos_log_printf>
    2348:	b8 10 20 00 	clr  %i4
    234c:	ba 10 20 00 	clr  %i5
    2350:	a2 14 63 84 	or  %l1, 0x384, %l1
    2354:	b2 16 61 c0 	or  %i1, 0x1c0, %i1
    2358:	b4 16 a1 c8 	or  %i2, 0x1c8, %i2
    235c:	b6 16 e0 30 	or  %i3, 0x30, %i3
    2360:	a0 14 22 70 	or  %l0, 0x270, %l0
    2364:	b0 16 22 78 	or  %i0, 0x278, %i0
    2368:	9a 10 00 1d 	mov  %i5, %o5
    236c:	92 10 00 1a 	mov  %i2, %o1
    2370:	94 10 00 1b 	mov  %i3, %o2
    2374:	96 10 20 96 	mov  0x96, %o3
    2378:	98 10 00 10 	mov  %l0, %o4
    237c:	7f ff fd fc 	call  1b6c <__cortos_log_printf>
    2380:	90 10 00 19 	mov  %i1, %o0
    2384:	c2 04 40 00 	ld  [ %l1 ], %g1
    2388:	9a 00 40 1c 	add  %g1, %i4, %o5
    238c:	c2 00 40 1c 	ld  [ %g1 + %i4 ], %g1
    2390:	c2 23 a0 5c 	st  %g1, [ %sp + 0x5c ]
    2394:	c2 03 60 04 	ld  [ %o5 + 4 ], %g1
    2398:	90 10 00 19 	mov  %i1, %o0
    239c:	92 10 00 1a 	mov  %i2, %o1
    23a0:	94 10 00 1b 	mov  %i3, %o2
    23a4:	96 10 20 97 	mov  0x97, %o3
    23a8:	98 10 00 18 	mov  %i0, %o4
    23ac:	7f ff fd f0 	call  1b6c <__cortos_log_printf>
    23b0:	c2 23 a0 60 	st  %g1, [ %sp + 0x60 ]
    23b4:	ba 07 60 02 	add  %i5, 2, %i5
    23b8:	80 a7 62 00 	cmp  %i5, 0x200
    23bc:	12 bf ff eb 	bne  2368 <printMemory+0x58>
    23c0:	b8 07 20 08 	add  %i4, 8, %i4
    23c4:	81 c7 e0 08 	ret 
    23c8:	81 e8 00 00 	restore 

000023cc <printBuffer>:
    23cc:	9d e3 bf 98 	save  %sp, -104, %sp
    23d0:	b9 3e 60 1f 	sra  %i1, 0x1f, %i4
    23d4:	b8 0f 20 03 	and  %i4, 3, %i4
    23d8:	b8 07 00 19 	add  %i4, %i1, %i4
    23dc:	b9 3f 20 02 	sra  %i4, 2, %i4
    23e0:	80 a7 20 00 	cmp  %i4, 0
    23e4:	04 80 00 19 	ble  2448 <printBuffer+0x7c>
    23e8:	21 00 00 40 	sethi  %hi(0x10000), %l0
    23ec:	33 00 00 40 	sethi  %hi(0x10000), %i1
    23f0:	35 00 00 40 	sethi  %hi(0x10000), %i2
    23f4:	37 00 00 40 	sethi  %hi(0x10000), %i3
    23f8:	ba 10 20 00 	clr  %i5
    23fc:	a0 14 21 c0 	or  %l0, 0x1c0, %l0
    2400:	b2 16 61 c8 	or  %i1, 0x1c8, %i1
    2404:	b4 16 a0 40 	or  %i2, 0x40, %i2
    2408:	b6 16 e2 a0 	or  %i3, 0x2a0, %i3
    240c:	c2 06 00 00 	ld  [ %i0 ], %g1
    2410:	c2 23 a0 5c 	st  %g1, [ %sp + 0x5c ]
    2414:	c2 06 20 04 	ld  [ %i0 + 4 ], %g1
    2418:	9a 10 00 18 	mov  %i0, %o5
    241c:	90 10 00 10 	mov  %l0, %o0
    2420:	92 10 00 19 	mov  %i1, %o1
    2424:	c2 23 a0 60 	st  %g1, [ %sp + 0x60 ]
    2428:	94 10 00 1a 	mov  %i2, %o2
    242c:	96 10 20 a0 	mov  0xa0, %o3
    2430:	7f ff fd cf 	call  1b6c <__cortos_log_printf>
    2434:	98 10 00 1b 	mov  %i3, %o4
    2438:	ba 07 60 02 	add  %i5, 2, %i5
    243c:	80 a7 40 1c 	cmp  %i5, %i4
    2440:	06 bf ff f3 	bl  240c <printBuffer+0x40>
    2444:	b0 06 20 08 	add  %i0, 8, %i0
    2448:	81 c7 e0 08 	ret 
    244c:	81 e8 00 00 	restore 

00002450 <storeFile>:
    2450:	9d e3 bf a0 	save  %sp, -96, %sp
    2454:	07 00 80 00 	sethi  %hi(0x2000000), %g3
    2458:	c2 06 a0 04 	ld  [ %i2 + 4 ], %g1
    245c:	c4 06 a0 20 	ld  [ %i2 + 0x20 ], %g2
    2460:	9f 38 60 08 	sra  %g1, 8, %o7
    2464:	80 88 80 03 	btst  %g2, %g3
    2468:	02 80 00 03 	be  2474 <storeFile+0x24>
    246c:	9e 0b e7 ff 	and  %o7, 0x7ff, %o7
    2470:	c2 26 60 04 	st  %g1, [ %i1 + 4 ]
    2474:	c2 06 00 00 	ld  [ %i0 ], %g1
    2478:	80 a0 60 01 	cmp  %g1, 1
    247c:	22 80 00 31 	be,a   2540 <storeFile+0xf0>
    2480:	c2 06 a0 18 	ld  [ %i2 + 0x18 ], %g1
    2484:	f8 06 c0 00 	ld  [ %i3 ], %i4
    2488:	b8 07 20 01 	inc  %i4
    248c:	b1 3b e0 02 	sra  %o7, 2, %i0
    2490:	80 a6 20 0a 	cmp  %i0, 0xa
    2494:	04 80 00 35 	ble  2568 <storeFile+0x118>
    2498:	82 10 20 24 	mov  0x24, %g1
    249c:	86 07 20 01 	add  %i4, 1, %g3
    24a0:	b0 06 3f f5 	add  %i0, -11, %i0
    24a4:	85 28 e0 02 	sll  %g3, 2, %g2
    24a8:	b1 36 20 01 	srl  %i0, 1, %i0
    24ac:	ba 06 a0 30 	add  %i2, 0x30, %i5
    24b0:	89 2e 20 03 	sll  %i0, 3, %g4
    24b4:	82 06 a0 28 	add  %i2, 0x28, %g1
    24b8:	84 06 40 02 	add  %i1, %g2, %g2
    24bc:	ba 07 40 04 	add  %i5, %g4, %i5
    24c0:	c8 00 40 00 	ld  [ %g1 ], %g4
    24c4:	c8 20 bf fc 	st  %g4, [ %g2 + -4 ]
    24c8:	c8 00 60 04 	ld  [ %g1 + 4 ], %g4
    24cc:	c8 20 80 00 	st  %g4, [ %g2 ]
    24d0:	c6 26 c0 00 	st  %g3, [ %i3 ]
    24d4:	82 00 60 08 	add  %g1, 8, %g1
    24d8:	84 00 a0 08 	add  %g2, 8, %g2
    24dc:	80 a0 40 1d 	cmp  %g1, %i5
    24e0:	12 bf ff f8 	bne  24c0 <storeFile+0x70>
    24e4:	86 00 e0 02 	add  %g3, 2, %g3
    24e8:	82 06 00 18 	add  %i0, %i0, %g1
    24ec:	b8 07 20 02 	add  %i4, 2, %i4
    24f0:	b0 06 20 06 	add  %i0, 6, %i0
    24f4:	b8 07 00 01 	add  %i4, %g1, %i4
    24f8:	b0 06 00 18 	add  %i0, %i0, %i0
    24fc:	82 06 3f ff 	add  %i0, -1, %g1
    2500:	83 28 60 02 	sll  %g1, 2, %g1
    2504:	80 a3 c0 01 	cmp  %o7, %g1
    2508:	02 80 00 0c 	be  2538 <storeFile+0xe8>
    250c:	83 2f 20 02 	sll  %i4, 2, %g1
    2510:	85 2e 20 02 	sll  %i0, 2, %g2
    2514:	c4 06 80 02 	ld  [ %i2 + %g2 ], %g2
    2518:	c4 26 40 01 	st  %g2, [ %i1 + %g1 ]
    251c:	b8 07 20 01 	inc  %i4
    2520:	b0 06 20 01 	inc  %i0
    2524:	83 2f 20 02 	sll  %i4, 2, %g1
    2528:	b1 2e 20 02 	sll  %i0, 2, %i0
    252c:	c4 06 80 18 	ld  [ %i2 + %i0 ], %g2
    2530:	c4 26 40 01 	st  %g2, [ %i1 + %g1 ]
    2534:	f8 26 c0 00 	st  %i4, [ %i3 ]
    2538:	81 c7 e0 08 	ret 
    253c:	81 e8 00 00 	restore 
    2540:	c2 26 60 08 	st  %g1, [ %i1 + 8 ]
    2544:	c2 06 a0 1c 	ld  [ %i2 + 0x1c ], %g1
    2548:	c2 26 60 0c 	st  %g1, [ %i1 + 0xc ]
    254c:	c2 06 a0 20 	ld  [ %i2 + 0x20 ], %g1
    2550:	c2 26 60 10 	st  %g1, [ %i1 + 0x10 ]
    2554:	c2 06 a0 24 	ld  [ %i2 + 0x24 ], %g1
    2558:	c2 26 60 14 	st  %g1, [ %i1 + 0x14 ]
    255c:	c0 26 00 00 	clr  [ %i0 ]
    2560:	10 bf ff cb 	b  248c <storeFile+0x3c>
    2564:	b8 10 20 06 	mov  6, %i4
    2568:	10 bf ff e7 	b  2504 <storeFile+0xb4>
    256c:	b0 10 20 0a 	mov  0xa, %i0

00002570 <sendFile>:
    2570:	9d e3 bf 88 	save  %sp, -120, %sp
    2574:	c2 06 20 04 	ld  [ %i0 + 4 ], %g1
    2578:	c4 06 20 10 	ld  [ %i0 + 0x10 ], %g2
    257c:	c6 06 20 14 	ld  [ %i0 + 0x14 ], %g3
    2580:	c2 27 bf e8 	st  %g1, [ %fp + -24 ]
    2584:	c4 27 bf ec 	st  %g2, [ %fp + -20 ]
    2588:	c6 27 bf f4 	st  %g3, [ %fp + -12 ]
    258c:	a4 06 e0 01 	add  %i3, 1, %l2
    2590:	ee 06 20 08 	ld  [ %i0 + 8 ], %l7
    2594:	a9 2c a0 02 	sll  %l2, 2, %l4
    2598:	80 a5 25 e8 	cmp  %l4, 0x5e8
    259c:	14 80 00 61 	bg  2720 <sendFile+0x1b0>
    25a0:	ec 06 20 0c 	ld  [ %i0 + 0xc ], %l6
    25a4:	27 00 00 40 	sethi  %hi(0x10000), %l3
    25a8:	23 00 00 40 	sethi  %hi(0x10000), %l1
    25ac:	21 00 00 40 	sethi  %hi(0x10000), %l0
    25b0:	39 00 00 40 	sethi  %hi(0x10000), %i4
    25b4:	ba 07 bf fc 	add  %fp, -4, %i5
    25b8:	a6 14 e1 c0 	or  %l3, 0x1c0, %l3
    25bc:	a2 14 61 c8 	or  %l1, 0x1c8, %l1
    25c0:	a0 14 20 50 	or  %l0, 0x50, %l0
    25c4:	10 80 00 07 	b  25e0 <sendFile+0x70>
    25c8:	b8 17 22 f0 	or  %i4, 0x2f0, %i4
    25cc:	92 10 00 11 	mov  %l1, %o1
    25d0:	94 10 00 10 	mov  %l0, %o2
    25d4:	96 10 21 3c 	mov  0x13c, %o3
    25d8:	7f ff fd 65 	call  1b6c <__cortos_log_printf>
    25dc:	98 10 00 1c 	mov  %i4, %o4
    25e0:	92 10 00 1d 	mov  %i5, %o1
    25e4:	90 10 00 19 	mov  %i1, %o0
    25e8:	7f ff f7 c1 	call  4ec <cortos_readMessages>
    25ec:	94 10 20 01 	mov  1, %o2
    25f0:	80 a2 20 00 	cmp  %o0, 0
    25f4:	02 bf ff f6 	be  25cc <sendFile+0x5c>
    25f8:	90 10 00 13 	mov  %l3, %o0
    25fc:	c6 07 bf e8 	ld  [ %fp + -24 ], %g3
    2600:	84 06 e0 03 	add  %i3, 3, %g2
    2604:	85 28 a0 12 	sll  %g2, 0x12, %g2
    2608:	85 30 a0 08 	srl  %g2, 8, %g2
    260c:	d0 07 bf fc 	ld  [ %fp + -4 ], %o0
    2610:	82 08 e0 ff 	and  %g3, 0xff, %g1
    2614:	ee 22 20 18 	st  %l7, [ %o0 + 0x18 ]
    2618:	82 10 80 01 	or  %g2, %g1, %g1
    261c:	c6 07 bf f4 	ld  [ %fp + -12 ], %g3
    2620:	c4 07 bf ec 	ld  [ %fp + -20 ], %g2
    2624:	ec 22 20 1c 	st  %l6, [ %o0 + 0x1c ]
    2628:	c4 22 20 20 	st  %g2, [ %o0 + 0x20 ]
    262c:	c2 22 20 04 	st  %g1, [ %o0 + 4 ]
    2630:	80 a4 a0 06 	cmp  %l2, 6
    2634:	04 80 00 e7 	ble  29d0 <sendFile+0x460>
    2638:	c6 22 20 24 	st  %g3, [ %o0 + 0x24 ]
    263c:	b6 06 ff fa 	add  %i3, -6, %i3
    2640:	84 06 20 18 	add  %i0, 0x18, %g2
    2644:	b7 36 e0 01 	srl  %i3, 1, %i3
    2648:	82 02 20 28 	add  %o0, 0x28, %g1
    264c:	b8 06 e0 06 	add  %i3, 6, %i4
    2650:	86 10 20 0a 	mov  0xa, %g3
    2654:	b8 07 00 1c 	add  %i4, %i4, %i4
    2658:	c8 00 80 00 	ld  [ %g2 ], %g4
    265c:	c8 20 40 00 	st  %g4, [ %g1 ]
    2660:	c8 00 a0 04 	ld  [ %g2 + 4 ], %g4
    2664:	c8 20 60 04 	st  %g4, [ %g1 + 4 ]
    2668:	86 00 e0 02 	add  %g3, 2, %g3
    266c:	84 00 a0 08 	add  %g2, 8, %g2
    2670:	80 a0 c0 1c 	cmp  %g3, %i4
    2674:	12 bf ff f9 	bne  2658 <sendFile+0xe8>
    2678:	82 00 60 08 	add  %g1, 8, %g1
    267c:	82 06 e0 04 	add  %i3, 4, %g1
    2680:	84 00 ff ff 	add  %g3, -1, %g2
    2684:	82 00 40 01 	add  %g1, %g1, %g1
    2688:	85 28 a0 02 	sll  %g2, 2, %g2
    268c:	80 a5 00 02 	cmp  %l4, %g2
    2690:	02 80 00 0b 	be  26bc <sendFile+0x14c>
    2694:	85 28 e0 02 	sll  %g3, 2, %g2
    2698:	89 28 60 02 	sll  %g1, 2, %g4
    269c:	82 00 60 01 	inc  %g1
    26a0:	c8 06 00 04 	ld  [ %i0 + %g4 ], %g4
    26a4:	c8 22 00 02 	st  %g4, [ %o0 + %g2 ]
    26a8:	86 00 e0 01 	inc  %g3
    26ac:	85 28 60 02 	sll  %g1, 2, %g2
    26b0:	83 28 e0 02 	sll  %g3, 2, %g1
    26b4:	c4 06 00 02 	ld  [ %i0 + %g2 ], %g2
    26b8:	c4 22 00 01 	st  %g2, [ %o0 + %g1 ]
    26bc:	92 10 26 a4 	mov  0x6a4, %o1
    26c0:	31 00 00 40 	sethi  %hi(0x10000), %i0
    26c4:	33 00 00 40 	sethi  %hi(0x10000), %i1
    26c8:	37 00 00 40 	sethi  %hi(0x10000), %i3
    26cc:	7f ff ff 40 	call  23cc <printBuffer>
    26d0:	39 00 00 40 	sethi  %hi(0x10000), %i4
    26d4:	b0 16 21 c0 	or  %i0, 0x1c0, %i0
    26d8:	b2 16 61 c8 	or  %i1, 0x1c8, %i1
    26dc:	b6 16 e0 50 	or  %i3, 0x50, %i3
    26e0:	10 80 00 07 	b  26fc <sendFile+0x18c>
    26e4:	b8 17 23 08 	or  %i4, 0x308, %i4
    26e8:	92 10 00 19 	mov  %i1, %o1
    26ec:	94 10 00 1b 	mov  %i3, %o2
    26f0:	96 10 21 5b 	mov  0x15b, %o3
    26f4:	7f ff fd 1e 	call  1b6c <__cortos_log_printf>
    26f8:	98 10 00 1c 	mov  %i4, %o4
    26fc:	92 10 00 1d 	mov  %i5, %o1
    2700:	90 10 00 1a 	mov  %i2, %o0
    2704:	7f ff f7 38 	call  3e4 <cortos_writeMessages>
    2708:	94 10 20 01 	mov  1, %o2
    270c:	80 a2 20 00 	cmp  %o0, 0
    2710:	02 bf ff f6 	be  26e8 <sendFile+0x178>
    2714:	90 10 00 18 	mov  %i0, %o0
    2718:	81 c7 e0 08 	ret 
    271c:	81 e8 00 00 	restore 
    2720:	b6 06 ff fb 	add  %i3, -5, %i3
    2724:	03 00 80 00 	sethi  %hi(0x2000000), %g1
    2728:	c4 07 bf ec 	ld  [ %fp + -20 ], %g2
    272c:	a7 2e e0 02 	sll  %i3, 2, %l3
    2730:	82 28 80 01 	andn  %g2, %g1, %g1
    2734:	21 00 00 40 	sethi  %hi(0x10000), %l0
    2738:	37 00 00 40 	sethi  %hi(0x10000), %i3
    273c:	39 00 00 40 	sethi  %hi(0x10000), %i4
    2740:	25 00 00 40 	sethi  %hi(0x10000), %l2
    2744:	23 00 00 40 	sethi  %hi(0x10000), %l1
    2748:	c2 27 bf f0 	st  %g1, [ %fp + -16 ]
    274c:	aa 06 20 18 	add  %i0, 0x18, %l5
    2750:	a8 10 20 06 	mov  6, %l4
    2754:	ba 07 bf fc 	add  %fp, -4, %i5
    2758:	a0 14 21 c0 	or  %l0, 0x1c0, %l0
    275c:	b6 16 e1 c8 	or  %i3, 0x1c8, %i3
    2760:	b8 17 20 50 	or  %i4, 0x50, %i4
    2764:	a4 14 a2 c8 	or  %l2, 0x2c8, %l2
    2768:	10 80 00 07 	b  2784 <sendFile+0x214>
    276c:	a2 14 62 e0 	or  %l1, 0x2e0, %l1
    2770:	92 10 00 1b 	mov  %i3, %o1
    2774:	94 10 00 1c 	mov  %i4, %o2
    2778:	96 10 20 f4 	mov  0xf4, %o3
    277c:	7f ff fc fc 	call  1b6c <__cortos_log_printf>
    2780:	98 10 00 12 	mov  %l2, %o4
    2784:	90 10 00 19 	mov  %i1, %o0
    2788:	92 10 00 1d 	mov  %i5, %o1
    278c:	7f ff f7 58 	call  4ec <cortos_readMessages>
    2790:	94 10 20 01 	mov  1, %o2
    2794:	80 a2 20 00 	cmp  %o0, 0
    2798:	02 bf ff f6 	be  2770 <sendFile+0x200>
    279c:	90 10 00 10 	mov  %l0, %o0
    27a0:	07 00 01 7e 	sethi  %hi(0x5f800), %g3
    27a4:	86 10 e0 ff 	or  %g3, 0xff, %g3	! 5f8ff <allocatedLocks+0x4e70f>
    27a8:	c4 07 bf fc 	ld  [ %fp + -4 ], %g2
    27ac:	c2 07 bf f4 	ld  [ %fp + -12 ], %g1
    27b0:	c6 20 a0 04 	st  %g3, [ %g2 + 4 ]
    27b4:	ee 20 a0 18 	st  %l7, [ %g2 + 0x18 ]
    27b8:	ec 20 a0 1c 	st  %l6, [ %g2 + 0x1c ]
    27bc:	c6 07 bf f0 	ld  [ %fp + -16 ], %g3
    27c0:	c2 20 a0 24 	st  %g1, [ %g2 + 0x24 ]
    27c4:	c6 20 a0 20 	st  %g3, [ %g2 + 0x20 ]
    27c8:	88 05 65 d8 	add  %l5, 0x5d8, %g4
    27cc:	84 00 a0 28 	add  %g2, 0x28, %g2
    27d0:	c6 05 40 00 	ld  [ %l5 ], %g3
    27d4:	c6 20 80 00 	st  %g3, [ %g2 ]
    27d8:	c6 05 60 04 	ld  [ %l5 + 4 ], %g3
    27dc:	c6 20 a0 04 	st  %g3, [ %g2 + 4 ]
    27e0:	aa 05 60 08 	add  %l5, 8, %l5
    27e4:	80 a5 40 04 	cmp  %l5, %g4
    27e8:	12 bf ff fa 	bne  27d0 <sendFile+0x260>
    27ec:	84 00 a0 08 	add  %g2, 8, %g2
    27f0:	10 80 00 07 	b  280c <sendFile+0x29c>
    27f4:	a8 05 21 76 	add  %l4, 0x176, %l4
    27f8:	92 10 00 1b 	mov  %i3, %o1
    27fc:	94 10 00 1c 	mov  %i4, %o2
    2800:	96 10 21 07 	mov  0x107, %o3
    2804:	7f ff fc da 	call  1b6c <__cortos_log_printf>
    2808:	98 10 00 11 	mov  %l1, %o4
    280c:	92 10 00 1d 	mov  %i5, %o1
    2810:	90 10 00 1a 	mov  %i2, %o0
    2814:	7f ff f6 f4 	call  3e4 <cortos_writeMessages>
    2818:	94 10 20 01 	mov  1, %o2
    281c:	80 a2 20 00 	cmp  %o0, 0
    2820:	02 bf ff f6 	be  27f8 <sendFile+0x288>
    2824:	90 10 00 10 	mov  %l0, %o0
    2828:	a6 04 fa 28 	add  %l3, -1496, %l3
    282c:	80 a4 e5 d7 	cmp  %l3, 0x5d7
    2830:	14 bf ff d6 	bg  2788 <sendFile+0x218>
    2834:	90 10 00 19 	mov  %i1, %o0
    2838:	23 00 00 40 	sethi  %hi(0x10000), %l1
    283c:	21 00 00 40 	sethi  %hi(0x10000), %l0
    2840:	37 00 00 40 	sethi  %hi(0x10000), %i3
    2844:	39 00 00 40 	sethi  %hi(0x10000), %i4
    2848:	a4 04 e0 20 	add  %l3, 0x20, %l2
    284c:	a2 14 61 c0 	or  %l1, 0x1c0, %l1
    2850:	a0 14 21 c8 	or  %l0, 0x1c8, %l0
    2854:	b6 16 e0 50 	or  %i3, 0x50, %i3
    2858:	10 80 00 07 	b  2874 <sendFile+0x304>
    285c:	b8 17 22 f0 	or  %i4, 0x2f0, %i4
    2860:	92 10 00 10 	mov  %l0, %o1
    2864:	94 10 00 1b 	mov  %i3, %o2
    2868:	96 10 21 13 	mov  0x113, %o3
    286c:	7f ff fc c0 	call  1b6c <__cortos_log_printf>
    2870:	98 10 00 1c 	mov  %i4, %o4
    2874:	92 10 00 1d 	mov  %i5, %o1
    2878:	90 10 00 19 	mov  %i1, %o0
    287c:	7f ff f7 1c 	call  4ec <cortos_readMessages>
    2880:	94 10 20 01 	mov  1, %o2
    2884:	80 a2 20 00 	cmp  %o0, 0
    2888:	22 bf ff f6 	be,a   2860 <sendFile+0x2f0>
    288c:	90 10 00 11 	mov  %l1, %o0
    2890:	c6 07 bf e8 	ld  [ %fp + -24 ], %g3
    2894:	82 08 e0 ff 	and  %g3, 0xff, %g1
    2898:	85 2c a0 10 	sll  %l2, 0x10, %g2
    289c:	c6 07 bf ec 	ld  [ %fp + -20 ], %g3
    28a0:	85 30 a0 08 	srl  %g2, 8, %g2
    28a4:	84 10 80 01 	or  %g2, %g1, %g2
    28a8:	03 00 80 00 	sethi  %hi(0x2000000), %g1
    28ac:	82 10 c0 01 	or  %g3, %g1, %g1
    28b0:	f8 07 bf fc 	ld  [ %fp + -4 ], %i4
    28b4:	c2 27 20 20 	st  %g1, [ %i4 + 0x20 ]
    28b8:	c4 27 20 04 	st  %g2, [ %i4 + 4 ]
    28bc:	c2 07 bf f4 	ld  [ %fp + -12 ], %g1
    28c0:	ee 27 20 18 	st  %l7, [ %i4 + 0x18 ]
    28c4:	c2 27 20 24 	st  %g1, [ %i4 + 0x24 ]
    28c8:	83 3c e0 1f 	sra  %l3, 0x1f, %g1
    28cc:	82 08 60 03 	and  %g1, 3, %g1
    28d0:	82 00 40 13 	add  %g1, %l3, %g1
    28d4:	83 38 60 02 	sra  %g1, 2, %g1
    28d8:	80 a0 60 00 	cmp  %g1, 0
    28dc:	04 80 00 41 	ble  29e0 <sendFile+0x470>
    28e0:	ec 27 20 1c 	st  %l6, [ %i4 + 0x1c ]
    28e4:	82 00 7f ff 	add  %g1, -1, %g1
    28e8:	84 05 20 01 	add  %l4, 1, %g2
    28ec:	b7 30 60 01 	srl  %g1, 1, %i3
    28f0:	85 28 a0 02 	sll  %g2, 2, %g2
    28f4:	88 07 20 30 	add  %i4, 0x30, %g4
    28f8:	87 2e e0 03 	sll  %i3, 3, %g3
    28fc:	82 07 20 28 	add  %i4, 0x28, %g1
    2900:	84 06 00 02 	add  %i0, %g2, %g2
    2904:	88 01 00 03 	add  %g4, %g3, %g4
    2908:	c6 00 bf fc 	ld  [ %g2 + -4 ], %g3
    290c:	c6 20 40 00 	st  %g3, [ %g1 ]
    2910:	c6 00 80 00 	ld  [ %g2 ], %g3
    2914:	c6 20 60 04 	st  %g3, [ %g1 + 4 ]
    2918:	82 00 60 08 	add  %g1, 8, %g1
    291c:	80 a0 40 04 	cmp  %g1, %g4
    2920:	12 bf ff fa 	bne  2908 <sendFile+0x398>
    2924:	84 00 a0 08 	add  %g2, 8, %g2
    2928:	82 06 e0 06 	add  %i3, 6, %g1
    292c:	a8 05 20 02 	add  %l4, 2, %l4
    2930:	86 06 c0 1b 	add  %i3, %i3, %g3
    2934:	85 2e e0 03 	sll  %i3, 3, %g2
    2938:	82 00 40 01 	add  %g1, %g1, %g1
    293c:	a8 05 00 03 	add  %l4, %g3, %l4
    2940:	84 00 a0 04 	add  %g2, 4, %g2
    2944:	80 a0 80 13 	cmp  %g2, %l3
    2948:	02 80 00 0b 	be  2974 <sendFile+0x404>
    294c:	85 28 60 02 	sll  %g1, 2, %g2
    2950:	87 2d 20 02 	sll  %l4, 2, %g3
    2954:	c6 06 00 03 	ld  [ %i0 + %g3 ], %g3
    2958:	c6 27 00 02 	st  %g3, [ %i4 + %g2 ]
    295c:	82 00 60 01 	inc  %g1
    2960:	84 05 20 01 	add  %l4, 1, %g2
    2964:	83 28 60 02 	sll  %g1, 2, %g1
    2968:	85 28 a0 02 	sll  %g2, 2, %g2
    296c:	c4 06 00 02 	ld  [ %i0 + %g2 ], %g2
    2970:	c4 27 00 01 	st  %g2, [ %i4 + %g1 ]
    2974:	31 00 00 40 	sethi  %hi(0x10000), %i0
    2978:	33 00 00 40 	sethi  %hi(0x10000), %i1
    297c:	37 00 00 40 	sethi  %hi(0x10000), %i3
    2980:	39 00 00 40 	sethi  %hi(0x10000), %i4
    2984:	b0 16 21 c0 	or  %i0, 0x1c0, %i0
    2988:	b2 16 61 c8 	or  %i1, 0x1c8, %i1
    298c:	b6 16 e0 50 	or  %i3, 0x50, %i3
    2990:	10 80 00 07 	b  29ac <sendFile+0x43c>
    2994:	b8 17 22 e0 	or  %i4, 0x2e0, %i4
    2998:	92 10 00 19 	mov  %i1, %o1
    299c:	94 10 00 1b 	mov  %i3, %o2
    29a0:	96 10 21 2f 	mov  0x12f, %o3
    29a4:	7f ff fc 72 	call  1b6c <__cortos_log_printf>
    29a8:	98 10 00 1c 	mov  %i4, %o4
    29ac:	92 10 00 1d 	mov  %i5, %o1
    29b0:	90 10 00 1a 	mov  %i2, %o0
    29b4:	7f ff f6 8c 	call  3e4 <cortos_writeMessages>
    29b8:	94 10 20 01 	mov  1, %o2
    29bc:	80 a2 20 00 	cmp  %o0, 0
    29c0:	02 bf ff f6 	be  2998 <sendFile+0x428>
    29c4:	90 10 00 18 	mov  %i0, %o0
    29c8:	81 c7 e0 08 	ret 
    29cc:	81 e8 00 00 	restore 
    29d0:	84 10 20 24 	mov  0x24, %g2
    29d4:	82 10 20 06 	mov  6, %g1
    29d8:	10 bf ff 2d 	b  268c <sendFile+0x11c>
    29dc:	86 10 20 0a 	mov  0xa, %g3
    29e0:	84 10 3f fc 	mov  -4, %g2
    29e4:	10 bf ff d8 	b  2944 <sendFile+0x3d4>
    29e8:	82 10 20 0a 	mov  0xa, %g1

000029ec <getConfigData>:
    29ec:	9d e3 bf 90 	save  %sp, -112, %sp
    29f0:	25 00 00 40 	sethi  %hi(0x10000), %l2
    29f4:	23 00 00 40 	sethi  %hi(0x10000), %l1
    29f8:	21 00 00 40 	sethi  %hi(0x10000), %l0
    29fc:	f0 27 a0 44 	st  %i0, [ %fp + 0x44 ]
    2a00:	82 10 20 01 	mov  1, %g1
    2a04:	31 00 00 40 	sethi  %hi(0x10000), %i0
    2a08:	f6 27 a0 50 	st  %i3, [ %fp + 0x50 ]
    2a0c:	c2 27 bf fc 	st  %g1, [ %fp + -4 ]
    2a10:	2f 00 00 40 	sethi  %hi(0x10000), %l7
    2a14:	ac 14 a1 c0 	or  %l2, 0x1c0, %l6
    2a18:	aa 14 61 c8 	or  %l1, 0x1c8, %l5
    2a1c:	a8 14 20 60 	or  %l0, 0x60, %l4
    2a20:	b0 16 23 e8 	or  %i0, 0x3e8, %i0
    2a24:	92 14 61 c8 	or  %l1, 0x1c8, %o1
    2a28:	94 14 20 60 	or  %l0, 0x60, %o2
    2a2c:	96 10 21 68 	mov  0x168, %o3
    2a30:	98 15 e3 18 	or  %l7, 0x318, %o4
    2a34:	9a 10 00 1a 	mov  %i2, %o5
    2a38:	7f ff fc 4d 	call  1b6c <__cortos_log_printf>
    2a3c:	90 14 a1 c0 	or  %l2, 0x1c0, %o0
    2a40:	07 00 00 40 	sethi  %hi(0x10000), %g3
    2a44:	c4 06 60 08 	ld  [ %i1 + 8 ], %g2
    2a48:	c2 06 40 00 	ld  [ %i1 ], %g1
    2a4c:	98 10 e3 30 	or  %g3, 0x330, %o4
    2a50:	92 14 61 c8 	or  %l1, 0x1c8, %o1
    2a54:	94 14 20 60 	or  %l0, 0x60, %o2
    2a58:	96 10 21 69 	mov  0x169, %o3
    2a5c:	da 06 60 04 	ld  [ %i1 + 4 ], %o5
    2a60:	c4 23 a0 5c 	st  %g2, [ %sp + 0x5c ]
    2a64:	c2 23 a0 60 	st  %g1, [ %sp + 0x60 ]
    2a68:	7f ff fc 41 	call  1b6c <__cortos_log_printf>
    2a6c:	90 14 a1 c0 	or  %l2, 0x1c0, %o0
    2a70:	03 00 00 40 	sethi  %hi(0x10000), %g1
    2a74:	c4 06 a0 08 	ld  [ %i2 + 8 ], %g2
    2a78:	98 10 63 78 	or  %g1, 0x378, %o4
    2a7c:	c2 06 80 00 	ld  [ %i2 ], %g1
    2a80:	94 14 20 60 	or  %l0, 0x60, %o2
    2a84:	96 10 21 6a 	mov  0x16a, %o3
    2a88:	da 06 a0 04 	ld  [ %i2 + 4 ], %o5
    2a8c:	c4 23 a0 5c 	st  %g2, [ %sp + 0x5c ]
    2a90:	c2 23 a0 60 	st  %g1, [ %sp + 0x60 ]
    2a94:	92 14 61 c8 	or  %l1, 0x1c8, %o1
    2a98:	7f ff fc 35 	call  1b6c <__cortos_log_printf>
    2a9c:	90 14 a1 c0 	or  %l2, 0x1c0, %o0
    2aa0:	90 10 00 1a 	mov  %i2, %o0
    2aa4:	7f ff fe 4a 	call  23cc <printBuffer>
    2aa8:	92 10 21 31 	mov  0x131, %o1
    2aac:	90 10 00 1a 	mov  %i2, %o0
    2ab0:	92 07 bf f8 	add  %fp, -8, %o1
    2ab4:	7f ff f6 8e 	call  4ec <cortos_readMessages>
    2ab8:	94 10 20 01 	mov  1, %o2
    2abc:	80 a2 20 00 	cmp  %o0, 0
    2ac0:	02 80 00 36 	be  2b98 <getConfigData+0x1ac>
    2ac4:	07 00 00 40 	sethi  %hi(0x10000), %g3
    2ac8:	92 10 00 15 	mov  %l5, %o1
    2acc:	98 10 e3 b8 	or  %g3, 0x3b8, %o4
    2ad0:	94 10 00 14 	mov  %l4, %o2
    2ad4:	96 10 21 6e 	mov  0x16e, %o3
    2ad8:	7f ff fc 25 	call  1b6c <__cortos_log_printf>
    2adc:	90 10 00 16 	mov  %l6, %o0
    2ae0:	d6 07 a0 50 	ld  [ %fp + 0x50 ], %o3
    2ae4:	e6 07 bf f8 	ld  [ %fp + -8 ], %l3
    2ae8:	90 07 bf fc 	add  %fp, -4, %o0
    2aec:	d2 07 a0 44 	ld  [ %fp + 0x44 ], %o1
    2af0:	7f ff fe 58 	call  2450 <storeFile>
    2af4:	94 10 00 13 	mov  %l3, %o2
    2af8:	03 00 00 40 	sethi  %hi(0x10000), %g1
    2afc:	92 10 00 15 	mov  %l5, %o1
    2b00:	94 10 00 14 	mov  %l4, %o2
    2b04:	96 10 21 71 	mov  0x171, %o3
    2b08:	98 10 63 c8 	or  %g1, 0x3c8, %o4
    2b0c:	9a 10 00 13 	mov  %l3, %o5
    2b10:	7f ff fc 17 	call  1b6c <__cortos_log_printf>
    2b14:	90 10 00 16 	mov  %l6, %o0
    2b18:	90 10 00 13 	mov  %l3, %o0
    2b1c:	92 10 26 a4 	mov  0x6a4, %o1
    2b20:	7f ff fe 2b 	call  23cc <printBuffer>
    2b24:	b6 10 00 16 	mov  %l6, %i3
    2b28:	b8 10 00 15 	mov  %l5, %i4
    2b2c:	10 80 00 07 	b  2b48 <getConfigData+0x15c>
    2b30:	ba 10 00 14 	mov  %l4, %i5
    2b34:	92 10 00 1c 	mov  %i4, %o1
    2b38:	94 10 00 1d 	mov  %i5, %o2
    2b3c:	96 10 21 7e 	mov  0x17e, %o3
    2b40:	7f ff fc 0b 	call  1b6c <__cortos_log_printf>
    2b44:	98 10 00 18 	mov  %i0, %o4
    2b48:	92 07 bf f8 	add  %fp, -8, %o1
    2b4c:	90 10 00 19 	mov  %i1, %o0
    2b50:	7f ff f6 25 	call  3e4 <cortos_writeMessages>
    2b54:	94 10 20 01 	mov  1, %o2
    2b58:	80 a2 20 00 	cmp  %o0, 0
    2b5c:	22 bf ff f6 	be,a   2b34 <getConfigData+0x148>
    2b60:	90 10 00 1b 	mov  %i3, %o0
    2b64:	c4 04 e0 20 	ld  [ %l3 + 0x20 ], %g2
    2b68:	03 00 80 00 	sethi  %hi(0x2000000), %g1
    2b6c:	80 88 80 01 	btst  %g2, %g1
    2b70:	12 80 00 13 	bne  2bbc <getConfigData+0x1d0>
    2b74:	90 14 a1 c0 	or  %l2, 0x1c0, %o0
    2b78:	92 14 61 c8 	or  %l1, 0x1c8, %o1
    2b7c:	94 14 20 60 	or  %l0, 0x60, %o2
    2b80:	96 10 21 84 	mov  0x184, %o3
    2b84:	19 00 00 41 	sethi  %hi(0x10400), %o4
    2b88:	7f ff fb f9 	call  1b6c <__cortos_log_printf>
    2b8c:	98 13 20 08 	or  %o4, 8, %o4	! 10408 <__clz_tab+0x398>
    2b90:	10 bf ff a6 	b  2a28 <getConfigData+0x3c>
    2b94:	92 14 61 c8 	or  %l1, 0x1c8, %o1
    2b98:	90 10 00 16 	mov  %l6, %o0
    2b9c:	92 10 00 15 	mov  %l5, %o1
    2ba0:	94 10 00 14 	mov  %l4, %o2
    2ba4:	96 10 21 8a 	mov  0x18a, %o3
    2ba8:	19 00 00 41 	sethi  %hi(0x10400), %o4
    2bac:	7f ff fb f0 	call  1b6c <__cortos_log_printf>
    2bb0:	98 13 20 28 	or  %o4, 0x28, %o4	! 10428 <__clz_tab+0x3b8>
    2bb4:	10 bf ff 9d 	b  2a28 <getConfigData+0x3c>
    2bb8:	92 14 61 c8 	or  %l1, 0x1c8, %o1
    2bbc:	81 c7 e0 08 	ret 
    2bc0:	81 e8 00 00 	restore 

00002bc4 <cortos_bget_ncram1>:
    2bc4:	9d e3 bf a0 	save  %sp, -96, %sp
    2bc8:	7f ff f6 c0 	call  6c8 <cortos_bget_ncram>
    2bcc:	90 10 00 18 	mov  %i0, %o0
    2bd0:	ba 10 00 08 	mov  %o0, %i5
    2bd4:	92 10 00 08 	mov  %o0, %o1
    2bd8:	94 07 40 18 	add  %i5, %i0, %o2
    2bdc:	11 00 00 41 	sethi  %hi(0x10400), %o0
    2be0:	b0 10 00 1d 	mov  %i5, %i0
    2be4:	40 00 01 9f 	call  3260 <cortos_printf>
    2be8:	90 12 20 48 	or  %o0, 0x48, %o0
    2bec:	81 c7 e0 08 	ret 
    2bf0:	81 e8 00 00 	restore 

00002bf4 <cortos_reserveQueue2>:
    2bf4:	9d e3 bf a0 	save  %sp, -96, %sp
    2bf8:	90 5e 40 18 	smul  %i1, %i0, %o0
    2bfc:	80 a6 a0 00 	cmp  %i2, 0
    2c00:	02 80 00 45 	be  2d14 <cortos_reserveQueue2+0x120>
    2c04:	90 02 20 30 	add  %o0, 0x30, %o0
    2c08:	7f ff f6 b0 	call  6c8 <cortos_bget_ncram>
    2c0c:	01 00 00 00 	nop 
    2c10:	b8 10 00 08 	mov  %o0, %i4
    2c14:	80 a7 20 00 	cmp  %i4, 0
    2c18:	02 80 00 43 	be  2d24 <cortos_reserveQueue2+0x130>
    2c1c:	92 10 00 18 	mov  %i0, %o1
    2c20:	d4 00 20 10 	ld  [ 0x10 ], %o2
    2c24:	11 00 00 41 	sethi  %hi(0x10400), %o0
    2c28:	40 00 01 8e 	call  3260 <cortos_printf>
    2c2c:	90 12 20 60 	or  %o0, 0x60, %o0	! 10460 <__clz_tab+0x3f0>
    2c30:	82 0f 20 0f 	and  %i4, 0xf, %g1
    2c34:	90 10 20 01 	mov  1, %o0
    2c38:	b6 10 20 10 	mov  0x10, %i3
    2c3c:	b6 26 c0 01 	sub  %i3, %g1, %i3
    2c40:	ba 07 00 1b 	add  %i4, %i3, %i5
    2c44:	c0 27 00 1b 	clr  [ %i4 + %i3 ]
    2c48:	c0 27 60 04 	clr  [ %i5 + 4 ]
    2c4c:	c0 27 60 08 	clr  [ %i5 + 8 ]
    2c50:	f0 27 60 10 	st  %i0, [ %i5 + 0x10 ]
    2c54:	40 00 01 18 	call  30b4 <cortos_reserveLock>
    2c58:	f2 27 60 0c 	st  %i1, [ %i5 + 0xc ]
    2c5c:	92 10 00 1d 	mov  %i5, %o1
    2c60:	d0 27 60 14 	st  %o0, [ %i5 + 0x14 ]
    2c64:	f8 27 60 18 	st  %i4, [ %i5 + 0x18 ]
    2c68:	c0 27 60 1c 	clr  [ %i5 + 0x1c ]
    2c6c:	11 00 00 41 	sethi  %hi(0x10400), %o0
    2c70:	40 00 01 7c 	call  3260 <cortos_printf>
    2c74:	90 12 20 70 	or  %o0, 0x70, %o0	! 10470 <__clz_tab+0x400>
    2c78:	d2 07 60 10 	ld  [ %i5 + 0x10 ], %o1
    2c7c:	11 00 00 41 	sethi  %hi(0x10400), %o0
    2c80:	40 00 01 78 	call  3260 <cortos_printf>
    2c84:	90 12 20 78 	or  %o0, 0x78, %o0	! 10478 <__clz_tab+0x408>
    2c88:	d2 07 00 1b 	ld  [ %i4 + %i3 ], %o1
    2c8c:	11 00 00 41 	sethi  %hi(0x10400), %o0
    2c90:	40 00 01 74 	call  3260 <cortos_printf>
    2c94:	90 12 20 90 	or  %o0, 0x90, %o0	! 10490 <__clz_tab+0x420>
    2c98:	d2 07 60 04 	ld  [ %i5 + 4 ], %o1
    2c9c:	11 00 00 41 	sethi  %hi(0x10400), %o0
    2ca0:	40 00 01 70 	call  3260 <cortos_printf>
    2ca4:	90 12 20 a0 	or  %o0, 0xa0, %o0	! 104a0 <__clz_tab+0x430>
    2ca8:	d2 07 60 08 	ld  [ %i5 + 8 ], %o1
    2cac:	11 00 00 41 	sethi  %hi(0x10400), %o0
    2cb0:	40 00 01 6c 	call  3260 <cortos_printf>
    2cb4:	90 12 20 b0 	or  %o0, 0xb0, %o0	! 104b0 <__clz_tab+0x440>
    2cb8:	d2 07 60 14 	ld  [ %i5 + 0x14 ], %o1
    2cbc:	11 00 00 41 	sethi  %hi(0x10400), %o0
    2cc0:	40 00 01 68 	call  3260 <cortos_printf>
    2cc4:	90 12 20 c0 	or  %o0, 0xc0, %o0	! 104c0 <__clz_tab+0x450>
    2cc8:	c2 07 60 14 	ld  [ %i5 + 0x14 ], %g1
    2ccc:	11 00 00 41 	sethi  %hi(0x10400), %o0
    2cd0:	d2 08 40 00 	ldub  [ %g1 ], %o1
    2cd4:	40 00 01 63 	call  3260 <cortos_printf>
    2cd8:	90 12 20 d0 	or  %o0, 0xd0, %o0
    2cdc:	d2 07 60 0c 	ld  [ %i5 + 0xc ], %o1
    2ce0:	11 00 00 41 	sethi  %hi(0x10400), %o0
    2ce4:	40 00 01 5f 	call  3260 <cortos_printf>
    2ce8:	90 12 20 e0 	or  %o0, 0xe0, %o0	! 104e0 <__clz_tab+0x470>
    2cec:	d2 07 60 18 	ld  [ %i5 + 0x18 ], %o1
    2cf0:	11 00 00 41 	sethi  %hi(0x10400), %o0
    2cf4:	40 00 01 5b 	call  3260 <cortos_printf>
    2cf8:	90 12 20 f0 	or  %o0, 0xf0, %o0	! 104f0 <__clz_tab+0x480>
    2cfc:	11 00 00 41 	sethi  %hi(0x10400), %o0
    2d00:	d2 07 60 1c 	ld  [ %i5 + 0x1c ], %o1
    2d04:	40 00 01 57 	call  3260 <cortos_printf>
    2d08:	90 12 21 00 	or  %o0, 0x100, %o0
    2d0c:	81 c7 e0 08 	ret 
    2d10:	91 e8 00 1d 	restore  %g0, %i5, %o0
    2d14:	7f ff f6 47 	call  630 <cortos_bget>
    2d18:	01 00 00 00 	nop 
    2d1c:	10 bf ff be 	b  2c14 <cortos_reserveQueue2+0x20>
    2d20:	b8 10 00 08 	mov  %o0, %i4
    2d24:	10 bf ff fa 	b  2d0c <cortos_reserveQueue2+0x118>
    2d28:	ba 10 20 00 	clr  %i5

00002d2c <cortos_writeMessages2>:
    2d2c:	9d e3 bf a0 	save  %sp, -96, %sp
    2d30:	3b 00 00 40 	sethi  %hi(0x10000), %i5
    2d34:	92 10 00 18 	mov  %i0, %o1
    2d38:	40 00 01 4a 	call  3260 <cortos_printf>
    2d3c:	90 17 61 e8 	or  %i5, 0x1e8, %o0
    2d40:	90 17 61 e8 	or  %i5, 0x1e8, %o0
    2d44:	40 00 01 47 	call  3260 <cortos_printf>
    2d48:	d2 06 40 00 	ld  [ %i1 ], %o1
    2d4c:	f4 27 a0 4c 	st  %i2, [ %fp + 0x4c ]
    2d50:	c2 06 20 1c 	ld  [ %i0 + 0x1c ], %g1
    2d54:	80 88 60 01 	btst  1, %g1
    2d58:	02 80 00 54 	be  2ea8 <cortos_writeMessages2+0x17c>
    2d5c:	01 00 00 00 	nop 
    2d60:	c2 06 00 00 	ld  [ %i0 ], %g1
    2d64:	80 a0 60 00 	cmp  %g1, 0
    2d68:	12 80 00 4c 	bne  2e98 <cortos_writeMessages2+0x16c>
    2d6c:	a2 10 20 00 	clr  %l1
    2d70:	e0 06 20 10 	ld  [ %i0 + 0x10 ], %l0
    2d74:	e6 06 20 08 	ld  [ %i0 + 8 ], %l3
    2d78:	e8 06 20 0c 	ld  [ %i0 + 0xc ], %l4
    2d7c:	92 10 00 10 	mov  %l0, %o1
    2d80:	11 00 00 41 	sethi  %hi(0x10400), %o0
    2d84:	94 10 00 10 	mov  %l0, %o2
    2d88:	40 00 01 36 	call  3260 <cortos_printf>
    2d8c:	90 12 20 60 	or  %o0, 0x60, %o0
    2d90:	c2 07 a0 4c 	ld  [ %fp + 0x4c ], %g1
    2d94:	80 a0 60 00 	cmp  %g1, 0
    2d98:	02 80 00 37 	be  2e74 <cortos_writeMessages2+0x148>
    2d9c:	aa 06 20 20 	add  %i0, 0x20, %l5
    2da0:	d6 06 20 0c 	ld  [ %i0 + 0xc ], %o3
    2da4:	80 a2 c0 11 	cmp  %o3, %l1
    2da8:	08 80 00 49 	bleu  2ecc <cortos_writeMessages2+0x1a0>
    2dac:	a4 10 00 01 	mov  %g1, %l2
    2db0:	2f 00 00 41 	sethi  %hi(0x10400), %l7
    2db4:	2d 00 00 41 	sethi  %hi(0x10400), %l6
    2db8:	37 00 00 41 	sethi  %hi(0x10400), %i3
    2dbc:	ae 15 e1 10 	or  %l7, 0x110, %l7
    2dc0:	ac 15 a1 28 	or  %l6, 0x128, %l6
    2dc4:	b6 16 e1 40 	or  %i3, 0x140, %i3
    2dc8:	92 10 00 12 	mov  %l2, %o1
    2dcc:	94 10 00 11 	mov  %l1, %o2
    2dd0:	40 00 01 24 	call  3260 <cortos_printf>
    2dd4:	90 10 00 17 	mov  %l7, %o0
    2dd8:	90 10 00 16 	mov  %l6, %o0
    2ddc:	ba 5c c0 10 	smul  %l3, %l0, %i5
    2de0:	92 10 00 10 	mov  %l0, %o1
    2de4:	40 00 01 1f 	call  3260 <cortos_printf>
    2de8:	ba 05 40 1d 	add  %l5, %i5, %i5
    2dec:	b4 10 00 1d 	mov  %i5, %i2
    2df0:	b8 06 40 10 	add  %i1, %l0, %i4
    2df4:	80 a4 20 00 	cmp  %l0, 0
    2df8:	02 80 00 0d 	be  2e2c <cortos_writeMessages2+0x100>
    2dfc:	ba 10 00 19 	mov  %i1, %i5
    2e00:	d2 0f 40 00 	ldub  [ %i5 ], %o1
    2e04:	94 10 00 1a 	mov  %i2, %o2
    2e08:	96 10 00 1d 	mov  %i5, %o3
    2e0c:	40 00 01 15 	call  3260 <cortos_printf>
    2e10:	90 10 00 1b 	mov  %i3, %o0
    2e14:	c4 0f 40 00 	ldub  [ %i5 ], %g2
    2e18:	c4 2e 80 00 	stb  %g2, [ %i2 ]
    2e1c:	ba 07 60 01 	inc  %i5
    2e20:	80 a7 40 1c 	cmp  %i5, %i4
    2e24:	12 bf ff f7 	bne  2e00 <cortos_writeMessages2+0xd4>
    2e28:	b4 06 a0 01 	inc  %i2
    2e2c:	a6 04 e0 01 	inc  %l3
    2e30:	a2 04 60 01 	inc  %l1
    2e34:	81 80 20 00 	mov  %g0, %y
    2e38:	01 00 00 00 	nop 
    2e3c:	01 00 00 00 	nop 
    2e40:	01 00 00 00 	nop 
    2e44:	82 74 c0 14 	udiv  %l3, %l4, %g1
    2e48:	a4 84 bf ff 	addcc  %l2, -1, %l2
    2e4c:	82 58 40 14 	smul  %g1, %l4, %g1
    2e50:	02 80 00 09 	be  2e74 <cortos_writeMessages2+0x148>
    2e54:	a6 24 c0 01 	sub  %l3, %g1, %l3
    2e58:	d6 06 20 0c 	ld  [ %i0 + 0xc ], %o3
    2e5c:	80 a2 c0 11 	cmp  %o3, %l1
    2e60:	18 bf ff da 	bgu  2dc8 <cortos_writeMessages2+0x9c>
    2e64:	b2 06 40 10 	add  %i1, %l0, %i1
    2e68:	c2 07 a0 4c 	ld  [ %fp + 0x4c ], %g1
    2e6c:	82 20 40 12 	sub  %g1, %l2, %g1
    2e70:	c2 27 a0 4c 	st  %g1, [ %fp + 0x4c ]
    2e74:	e6 26 20 08 	st  %l3, [ %i0 + 8 ]
    2e78:	e2 26 00 00 	st  %l1, [ %i0 ]
    2e7c:	c2 06 20 1c 	ld  [ %i0 + 0x1c ], %g1
    2e80:	80 88 60 01 	btst  1, %g1
    2e84:	02 80 00 0d 	be  2eb8 <cortos_writeMessages2+0x18c>
    2e88:	01 00 00 00 	nop 
    2e8c:	f0 07 a0 4c 	ld  [ %fp + 0x4c ], %i0
    2e90:	81 c7 e0 08 	ret 
    2e94:	81 e8 00 00 	restore 
    2e98:	c0 27 a0 4c 	clr  [ %fp + 0x4c ]
    2e9c:	f0 07 a0 4c 	ld  [ %fp + 0x4c ], %i0
    2ea0:	81 c7 e0 08 	ret 
    2ea4:	81 e8 00 00 	restore 
    2ea8:	7f ff f5 03 	call  2b4 <cortos_lock_acquire_buzy>
    2eac:	d0 06 20 14 	ld  [ %i0 + 0x14 ], %o0
    2eb0:	10 bf ff b0 	b  2d70 <cortos_writeMessages2+0x44>
    2eb4:	e2 06 00 00 	ld  [ %i0 ], %l1
    2eb8:	7f ff f5 19 	call  31c <cortos_lock_release>
    2ebc:	d0 06 20 14 	ld  [ %i0 + 0x14 ], %o0
    2ec0:	f0 07 a0 4c 	ld  [ %fp + 0x4c ], %i0
    2ec4:	81 c7 e0 08 	ret 
    2ec8:	81 e8 00 00 	restore 
    2ecc:	10 bf ff ea 	b  2e74 <cortos_writeMessages2+0x148>
    2ed0:	c0 27 a0 4c 	clr  [ %fp + 0x4c ]

00002ed4 <cortos_init_hw_traps>:
    2ed4:	82 13 c0 00 	mov  %o7, %g1
    2ed8:	7f ff f6 10 	call  718 <ajit_initialize_interrupt_handlers_to_null>
    2edc:	9e 10 40 00 	mov  %g1, %o7

00002ee0 <cortos_init_sw_traps>:
    2ee0:	82 13 c0 00 	mov  %o7, %g1
    2ee4:	7f ff fc 43 	call  1ff0 <ajit_initialize_sw_trap_handlers_to_null>
    2ee8:	9e 10 40 00 	mov  %g1, %o7

00002eec <bget_ncram>:
    2eec:	83 3a 20 1f 	sra  %o0, 0x1f, %g1
    2ef0:	83 30 60 1c 	srl  %g1, 0x1c, %g1
    2ef4:	84 02 00 01 	add  %o0, %g1, %g2
    2ef8:	84 08 a0 0f 	and  %g2, 0xf, %g2
    2efc:	82 20 80 01 	sub  %g2, %g1, %g1
    2f00:	90 00 40 08 	add  %g1, %o0, %o0
    2f04:	80 a2 20 0f 	cmp  %o0, 0xf
    2f08:	08 80 00 23 	bleu  2f94 <bget_ncram+0xa8>
    2f0c:	86 10 20 18 	mov  0x18, %g3
    2f10:	88 02 20 0f 	add  %o0, 0xf, %g4
    2f14:	88 09 3f f0 	and  %g4, -16, %g4
    2f18:	88 01 20 08 	add  %g4, 8, %g4
    2f1c:	86 10 00 04 	mov  %g4, %g3
    2f20:	05 00 00 41 	sethi  %hi(0x10400), %g2
    2f24:	84 10 a3 88 	or  %g2, 0x388, %g2	! 10788 <freelist_ncram>
    2f28:	d0 00 a0 08 	ld  [ %g2 + 8 ], %o0
    2f2c:	80 a2 00 02 	cmp  %o0, %g2
    2f30:	32 80 00 08 	bne,a   2f50 <bget_ncram+0x64>
    2f34:	c2 02 20 04 	ld  [ %o0 + 4 ], %g1
    2f38:	81 c3 e0 08 	retl 
    2f3c:	90 10 20 00 	clr  %o0
    2f40:	80 a2 00 02 	cmp  %o0, %g2
    2f44:	02 80 00 12 	be  2f8c <bget_ncram+0xa0>
    2f48:	01 00 00 00 	nop 
    2f4c:	c2 02 20 04 	ld  [ %o0 + 4 ], %g1
    2f50:	80 a0 40 03 	cmp  %g1, %g3
    2f54:	26 bf ff fb 	bl,a   2f40 <bget_ncram+0x54>
    2f58:	d0 02 20 08 	ld  [ %o0 + 8 ], %o0
    2f5c:	84 20 40 03 	sub  %g1, %g3, %g2
    2f60:	80 a0 a0 18 	cmp  %g2, 0x18
    2f64:	28 80 00 0e 	bleu,a   2f9c <bget_ncram+0xb0>
    2f68:	c6 02 20 08 	ld  [ %o0 + 8 ], %g3
    2f6c:	c4 22 20 04 	st  %g2, [ %o0 + 4 ]
    2f70:	c4 22 00 02 	st  %g2, [ %o0 + %g2 ]
    2f74:	86 20 00 03 	neg  %g3
    2f78:	90 02 00 02 	add  %o0, %g2, %o0
    2f7c:	c0 22 00 04 	clr  [ %o0 + %g4 ]
    2f80:	c6 22 20 04 	st  %g3, [ %o0 + 4 ]
    2f84:	81 c3 e0 08 	retl 
    2f88:	90 02 20 08 	add  %o0, 8, %o0
    2f8c:	81 c3 e0 08 	retl 
    2f90:	90 10 20 00 	clr  %o0
    2f94:	10 bf ff e3 	b  2f20 <bget_ncram+0x34>
    2f98:	88 10 20 18 	mov  0x18, %g4
    2f9c:	c4 02 20 0c 	ld  [ %o0 + 0xc ], %g2
    2fa0:	c6 20 a0 08 	st  %g3, [ %g2 + 8 ]
    2fa4:	c6 02 20 08 	ld  [ %o0 + 8 ], %g3
    2fa8:	c4 20 e0 0c 	st  %g2, [ %g3 + 0xc ]
    2fac:	c0 22 00 01 	clr  [ %o0 + %g1 ]
    2fb0:	84 20 00 01 	neg  %g1, %g2
    2fb4:	c4 22 20 04 	st  %g2, [ %o0 + 4 ]
    2fb8:	90 02 20 08 	add  %o0, 8, %o0
    2fbc:	81 c3 e0 08 	retl 
    2fc0:	01 00 00 00 	nop 

00002fc4 <bpool_ncram>:
    2fc4:	03 00 00 41 	sethi  %hi(0x10400), %g1
    2fc8:	82 10 63 88 	or  %g1, 0x388, %g1	! 10788 <freelist_ncram>
    2fcc:	c4 00 60 0c 	ld  [ %g1 + 0xc ], %g2
    2fd0:	c2 22 20 08 	st  %g1, [ %o0 + 8 ]
    2fd4:	c4 22 20 0c 	st  %g2, [ %o0 + 0xc ]
    2fd8:	d0 20 60 0c 	st  %o0, [ %g1 + 0xc ]
    2fdc:	c0 22 00 00 	clr  [ %o0 ]
    2fe0:	c2 02 20 0c 	ld  [ %o0 + 0xc ], %g1
    2fe4:	92 0a 7f f0 	and  %o1, -16, %o1
    2fe8:	d0 20 60 08 	st  %o0, [ %g1 + 8 ]
    2fec:	92 02 7f f8 	add  %o1, -8, %o1
    2ff0:	d2 22 20 04 	st  %o1, [ %o0 + 4 ]
    2ff4:	82 02 00 09 	add  %o0, %o1, %g1
    2ff8:	05 20 00 00 	sethi  %hi(0x80000000), %g2
    2ffc:	d2 22 00 09 	st  %o1, [ %o0 + %o1 ]
    3000:	81 c3 e0 08 	retl 
    3004:	c4 20 60 04 	st  %g2, [ %g1 + 4 ]

00003008 <brel_ncram>:
    3008:	c2 02 3f f8 	ld  [ %o0 + -8 ], %g1
    300c:	80 a0 60 00 	cmp  %g1, 0
    3010:	02 80 00 16 	be  3068 <brel_ncram+0x60>
    3014:	84 02 3f f8 	add  %o0, -8, %g2
    3018:	84 20 80 01 	sub  %g2, %g1, %g2
    301c:	c2 02 3f fc 	ld  [ %o0 + -4 ], %g1
    3020:	c6 00 a0 04 	ld  [ %g2 + 4 ], %g3
    3024:	82 20 c0 01 	sub  %g3, %g1, %g1
    3028:	c2 20 a0 04 	st  %g1, [ %g2 + 4 ]
    302c:	86 00 80 01 	add  %g2, %g1, %g3
    3030:	c8 00 e0 04 	ld  [ %g3 + 4 ], %g4
    3034:	80 a1 20 00 	cmp  %g4, 0
    3038:	04 80 00 0a 	ble  3060 <brel_ncram+0x58>
    303c:	01 00 00 00 	nop 
    3040:	da 00 e0 0c 	ld  [ %g3 + 0xc ], %o5
    3044:	82 00 40 04 	add  %g1, %g4, %g1
    3048:	d8 00 e0 08 	ld  [ %g3 + 8 ], %o4
    304c:	c2 20 a0 04 	st  %g1, [ %g2 + 4 ]
    3050:	d8 23 60 08 	st  %o4, [ %o5 + 8 ]
    3054:	c8 00 e0 08 	ld  [ %g3 + 8 ], %g4
    3058:	86 00 80 01 	add  %g2, %g1, %g3
    305c:	da 21 20 0c 	st  %o5, [ %g4 + 0xc ]
    3060:	81 c3 e0 08 	retl 
    3064:	c2 20 c0 00 	st  %g1, [ %g3 ]
    3068:	07 00 00 41 	sethi  %hi(0x10400), %g3
    306c:	86 10 e3 88 	or  %g3, 0x388, %g3	! 10788 <freelist_ncram>
    3070:	c2 00 e0 0c 	ld  [ %g3 + 0xc ], %g1
    3074:	c6 22 00 00 	st  %g3, [ %o0 ]
    3078:	c2 22 20 04 	st  %g1, [ %o0 + 4 ]
    307c:	c4 20 e0 0c 	st  %g2, [ %g3 + 0xc ]
    3080:	c2 02 3f fc 	ld  [ %o0 + -4 ], %g1
    3084:	c6 02 20 04 	ld  [ %o0 + 4 ], %g3
    3088:	82 20 00 01 	neg  %g1
    308c:	c4 20 e0 08 	st  %g2, [ %g3 + 8 ]
    3090:	10 bf ff e7 	b  302c <brel_ncram+0x24>
    3094:	c2 22 3f fc 	st  %g1, [ %o0 + -4 ]

00003098 <cortos_init_locks>:
    3098:	84 10 20 01 	mov  1, %g2
    309c:	03 00 00 44 	sethi  %hi(0x11000), %g1
    30a0:	c4 28 60 f0 	stb  %g2, [ %g1 + 0xf0 ]	! 110f0 <allocatedLocksNc>
    30a4:	05 00 00 4c 	sethi  %hi(0x13000), %g2
    30a8:	03 00 00 44 	sethi  %hi(0x11000), %g1
    30ac:	81 c3 e0 08 	retl 
    30b0:	c4 20 60 e8 	st  %g2, [ %g1 + 0xe8 ]	! 110e8 <cortos_reservedLockAddr>

000030b4 <cortos_reserveLock>:
    30b4:	9d e3 bf a0 	save  %sp, -96, %sp
    30b8:	80 a6 20 00 	cmp  %i0, 0
    30bc:	22 80 00 1b 	be,a   3128 <cortos_reserveLock+0x74>
    30c0:	03 00 00 41 	sethi  %hi(0x10400), %g1
    30c4:	03 00 00 41 	sethi  %hi(0x10400), %g1
    30c8:	39 00 00 44 	sethi  %hi(0x11000), %i4
    30cc:	f0 00 63 98 	ld  [ %g1 + 0x398 ], %i0
    30d0:	b8 17 20 f0 	or  %i4, 0xf0, %i4
    30d4:	3b 00 00 44 	sethi  %hi(0x11000), %i5
    30d8:	7f ff f4 77 	call  2b4 <cortos_lock_acquire_buzy>
    30dc:	d0 07 60 e8 	ld  [ %i5 + 0xe8 ], %o0	! 110e8 <cortos_reservedLockAddr>
    30e0:	82 10 00 1c 	mov  %i4, %g1
    30e4:	10 80 00 06 	b  30fc <cortos_reserveLock+0x48>
    30e8:	84 10 20 00 	clr  %g2
    30ec:	84 00 a0 01 	inc  %g2
    30f0:	80 a0 a1 00 	cmp  %g2, 0x100
    30f4:	02 80 00 11 	be  3138 <cortos_reserveLock+0x84>
    30f8:	82 00 60 01 	inc  %g1
    30fc:	c6 48 40 00 	ldsb  [ %g1 ], %g3
    3100:	80 a0 e0 00 	cmp  %g3, 0
    3104:	12 bf ff fa 	bne  30ec <cortos_reserveLock+0x38>
    3108:	b8 10 00 02 	mov  %g2, %i4
    310c:	86 10 20 01 	mov  1, %g3
    3110:	d0 07 60 e8 	ld  [ %i5 + 0xe8 ], %o0
    3114:	c6 28 40 00 	stb  %g3, [ %g1 ]
    3118:	7f ff f4 81 	call  31c <cortos_lock_release>
    311c:	b0 06 00 1c 	add  %i0, %i4, %i0
    3120:	81 c7 e0 08 	ret 
    3124:	81 e8 00 00 	restore 
    3128:	39 00 00 44 	sethi  %hi(0x11000), %i4
    312c:	f0 00 63 9c 	ld  [ %g1 + 0x39c ], %i0
    3130:	10 bf ff e9 	b  30d4 <cortos_reserveLock+0x20>
    3134:	b8 17 21 f0 	or  %i4, 0x1f0, %i4
    3138:	b8 10 21 00 	mov  0x100, %i4
    313c:	d0 07 60 e8 	ld  [ %i5 + 0xe8 ], %o0
    3140:	7f ff f4 77 	call  31c <cortos_lock_release>
    3144:	b0 06 00 1c 	add  %i0, %i4, %i0
    3148:	81 c7 e0 08 	ret 
    314c:	81 e8 00 00 	restore 

00003150 <cortos_freeLock>:
    3150:	9d e3 bf a0 	save  %sp, -96, %sp
    3154:	3b 00 00 41 	sethi  %hi(0x10400), %i5
    3158:	c2 07 63 9c 	ld  [ %i5 + 0x39c ], %g1	! 1079c <lockStartAddr>
    315c:	80 a0 40 18 	cmp  %g1, %i0
    3160:	18 80 00 05 	bgu  3174 <cortos_freeLock+0x24>
    3164:	82 00 61 00 	add  %g1, 0x100, %g1
    3168:	80 a6 00 01 	cmp  %i0, %g1
    316c:	0a 80 00 0e 	bcs  31a4 <cortos_freeLock+0x54>
    3170:	39 00 00 44 	sethi  %hi(0x11000), %i4
    3174:	3b 00 00 44 	sethi  %hi(0x11000), %i5
    3178:	7f ff f4 4f 	call  2b4 <cortos_lock_acquire_buzy>
    317c:	d0 07 60 e8 	ld  [ %i5 + 0xe8 ], %o0	! 110e8 <cortos_reservedLockAddr>
    3180:	03 00 00 41 	sethi  %hi(0x10400), %g1
    3184:	05 00 00 44 	sethi  %hi(0x11000), %g2
    3188:	c2 00 63 98 	ld  [ %g1 + 0x398 ], %g1
    318c:	84 10 a0 f0 	or  %g2, 0xf0, %g2
    3190:	82 26 00 01 	sub  %i0, %g1, %g1
    3194:	f0 07 60 e8 	ld  [ %i5 + 0xe8 ], %i0
    3198:	c0 28 80 01 	clrb  [ %g2 + %g1 ]
    319c:	7f ff f4 60 	call  31c <cortos_lock_release>
    31a0:	81 e8 00 00 	restore 
    31a4:	7f ff f4 44 	call  2b4 <cortos_lock_acquire_buzy>
    31a8:	d0 07 20 e8 	ld  [ %i4 + 0xe8 ], %o0
    31ac:	c2 07 63 9c 	ld  [ %i5 + 0x39c ], %g1
    31b0:	05 00 00 44 	sethi  %hi(0x11000), %g2
    31b4:	82 26 00 01 	sub  %i0, %g1, %g1
    31b8:	84 10 a1 f0 	or  %g2, 0x1f0, %g2
    31bc:	f0 07 20 e8 	ld  [ %i4 + 0xe8 ], %i0
    31c0:	c0 28 80 01 	clrb  [ %g2 + %g1 ]
    31c4:	7f ff f4 56 	call  31c <cortos_lock_release>
    31c8:	81 e8 00 00 	restore 

000031cc <cortos_init_printing>:
    31cc:	84 10 20 01 	mov  1, %g2
    31d0:	03 00 00 44 	sethi  %hi(0x11000), %g1
    31d4:	82 10 60 f0 	or  %g1, 0xf0, %g1	! 110f0 <allocatedLocksNc>
    31d8:	c4 28 60 05 	stb  %g2, [ %g1 + 5 ]
    31dc:	05 00 00 4c 	sethi  %hi(0x13000), %g2
    31e0:	03 00 00 44 	sethi  %hi(0x11000), %g1
    31e4:	84 10 a0 05 	or  %g2, 5, %g2
    31e8:	81 c3 e0 08 	retl 
    31ec:	c4 20 60 60 	st  %g2, [ %g1 + 0x60 ]

000031f0 <cortos_get_clock_time>:
    31f0:	82 13 c0 00 	mov  %o7, %g1
    31f4:	7f ff f6 af 	call  cb0 <__ajit_get_clock_time>
    31f8:	9e 10 40 00 	mov  %g1, %o7

000031fc <cortos_sleep>:
    31fc:	9d e3 bf a0 	save  %sp, -96, %sp
    3200:	f0 27 a0 44 	st  %i0, [ %fp + 0x44 ]
    3204:	d0 07 a0 44 	ld  [ %fp + 0x44 ], %o0
    3208:	7f ff f6 b4 	call  cd8 <__ajit_sleep__>
    320c:	01 00 00 00 	nop 
    3210:	81 e8 00 00 	restore 
    3214:	81 c3 e0 08 	retl 
    3218:	01 00 00 00 	nop 

0000321c <cortos_get_thread_id>:
    321c:	9d e3 bf a0 	save  %sp, -96, %sp
    3220:	a3 47 40 00 	rd  %asr29, %l1
    3224:	82 10 00 11 	mov  %l1, %g1
    3228:	b1 30 60 07 	srl  %g1, 7, %i0
    322c:	b0 0e 21 fe 	and  %i0, 0x1fe, %i0
    3230:	82 06 00 01 	add  %i0, %g1, %g1
    3234:	b1 28 60 18 	sll  %g1, 0x18, %i0
    3238:	b1 3e 20 18 	sra  %i0, 0x18, %i0
    323c:	81 c7 e0 08 	ret 
    3240:	81 e8 00 00 	restore 

00003244 <cortos_IsNcRamAddr>:
    3244:	03 3f f8 00 	sethi  %hi(0xffe00000), %g1
    3248:	90 02 00 01 	add  %o0, %g1, %o0
    324c:	05 00 57 ff 	sethi  %hi(0x15ffc00), %g2
    3250:	84 10 a3 ff 	or  %g2, 0x3ff, %g2	! 15fffff <allocatedLocks+0x15eee0f>
    3254:	80 a0 80 08 	cmp  %g2, %o0
    3258:	81 c3 e0 08 	retl 
    325c:	90 60 3f ff 	subx  %g0, -1, %o0

00003260 <cortos_printf>:
    3260:	9d e3 bb 98 	save  %sp, -1128, %sp
    3264:	f8 27 a0 54 	st  %i4, [ %fp + 0x54 ]
    3268:	fa 27 a0 58 	st  %i5, [ %fp + 0x58 ]
    326c:	f2 27 a0 48 	st  %i1, [ %fp + 0x48 ]
    3270:	f4 27 a0 4c 	st  %i2, [ %fp + 0x4c ]
    3274:	f6 27 a0 50 	st  %i3, [ %fp + 0x50 ]
    3278:	39 00 00 44 	sethi  %hi(0x11000), %i4
    327c:	7f ff f4 0e 	call  2b4 <cortos_lock_acquire_buzy>
    3280:	d0 07 20 60 	ld  [ %i4 + 0x60 ], %o0	! 11060 <printingLockAddr>
    3284:	94 07 a0 48 	add  %fp, 0x48, %o2
    3288:	92 10 00 18 	mov  %i0, %o1
    328c:	ba 07 bc 00 	add  %fp, -1024, %i5
    3290:	d4 27 bb fc 	st  %o2, [ %fp + -1028 ]
    3294:	40 00 01 76 	call  386c <ee_vsprintf>
    3298:	90 10 00 1d 	mov  %i5, %o0
    329c:	d0 0f bc 00 	ldub  [ %fp + -1024 ], %o0
    32a0:	91 2a 20 18 	sll  %o0, 0x18, %o0
    32a4:	80 a2 20 00 	cmp  %o0, 0
    32a8:	02 80 00 0a 	be  32d0 <cortos_printf+0x70>
    32ac:	b0 10 20 00 	clr  %i0
    32b0:	40 00 04 9b 	call  451c <uart_send_char>
    32b4:	91 3a 20 18 	sra  %o0, 0x18, %o0
    32b8:	b0 06 20 01 	inc  %i0
    32bc:	d0 0f 40 18 	ldub  [ %i5 + %i0 ], %o0
    32c0:	91 2a 20 18 	sll  %o0, 0x18, %o0
    32c4:	80 a2 20 00 	cmp  %o0, 0
    32c8:	12 bf ff fa 	bne  32b0 <cortos_printf+0x50>
    32cc:	01 00 00 00 	nop 
    32d0:	7f ff f4 13 	call  31c <cortos_lock_release>
    32d4:	d0 07 20 60 	ld  [ %i4 + 0x60 ], %o0
    32d8:	81 c7 e0 08 	ret 
    32dc:	81 e8 00 00 	restore 

000032e0 <bget>:
    32e0:	80 a2 20 07 	cmp  %o0, 7
    32e4:	08 80 00 23 	bleu  3370 <bget+0x90>
    32e8:	86 10 20 10 	mov  0x10, %g3
    32ec:	88 02 20 07 	add  %o0, 7, %g4
    32f0:	88 09 3f f8 	and  %g4, -8, %g4
    32f4:	88 01 20 08 	add  %g4, 8, %g4
    32f8:	86 10 00 04 	mov  %g4, %g3
    32fc:	05 00 00 41 	sethi  %hi(0x10400), %g2
    3300:	84 10 a3 a0 	or  %g2, 0x3a0, %g2	! 107a0 <freelist>
    3304:	d0 00 a0 08 	ld  [ %g2 + 8 ], %o0
    3308:	80 a2 00 02 	cmp  %o0, %g2
    330c:	32 80 00 08 	bne,a   332c <bget+0x4c>
    3310:	c2 02 20 04 	ld  [ %o0 + 4 ], %g1
    3314:	81 c3 e0 08 	retl 
    3318:	90 10 20 00 	clr  %o0
    331c:	80 a2 00 02 	cmp  %o0, %g2
    3320:	02 80 00 12 	be  3368 <bget+0x88>
    3324:	01 00 00 00 	nop 
    3328:	c2 02 20 04 	ld  [ %o0 + 4 ], %g1
    332c:	80 a0 40 03 	cmp  %g1, %g3
    3330:	26 bf ff fb 	bl,a   331c <bget+0x3c>
    3334:	d0 02 20 08 	ld  [ %o0 + 8 ], %o0
    3338:	84 20 40 03 	sub  %g1, %g3, %g2
    333c:	80 a0 a0 10 	cmp  %g2, 0x10
    3340:	28 80 00 0e 	bleu,a   3378 <bget+0x98>
    3344:	c6 02 20 08 	ld  [ %o0 + 8 ], %g3
    3348:	c4 22 20 04 	st  %g2, [ %o0 + 4 ]
    334c:	c4 22 00 02 	st  %g2, [ %o0 + %g2 ]
    3350:	86 20 00 03 	neg  %g3
    3354:	90 02 00 02 	add  %o0, %g2, %o0
    3358:	c0 22 00 04 	clr  [ %o0 + %g4 ]
    335c:	c6 22 20 04 	st  %g3, [ %o0 + 4 ]
    3360:	81 c3 e0 08 	retl 
    3364:	90 02 20 08 	add  %o0, 8, %o0
    3368:	81 c3 e0 08 	retl 
    336c:	90 10 20 00 	clr  %o0
    3370:	10 bf ff e3 	b  32fc <bget+0x1c>
    3374:	88 10 20 10 	mov  0x10, %g4
    3378:	c4 02 20 0c 	ld  [ %o0 + 0xc ], %g2
    337c:	c6 20 a0 08 	st  %g3, [ %g2 + 8 ]
    3380:	c6 02 20 08 	ld  [ %o0 + 8 ], %g3
    3384:	c4 20 e0 0c 	st  %g2, [ %g3 + 0xc ]
    3388:	c0 22 00 01 	clr  [ %o0 + %g1 ]
    338c:	84 20 00 01 	neg  %g1, %g2
    3390:	c4 22 20 04 	st  %g2, [ %o0 + 4 ]
    3394:	90 02 20 08 	add  %o0, 8, %o0
    3398:	81 c3 e0 08 	retl 
    339c:	01 00 00 00 	nop 

000033a0 <bpool>:
    33a0:	03 00 00 41 	sethi  %hi(0x10400), %g1
    33a4:	82 10 63 a0 	or  %g1, 0x3a0, %g1	! 107a0 <freelist>
    33a8:	c4 00 60 0c 	ld  [ %g1 + 0xc ], %g2
    33ac:	c2 22 20 08 	st  %g1, [ %o0 + 8 ]
    33b0:	c4 22 20 0c 	st  %g2, [ %o0 + 0xc ]
    33b4:	d0 20 60 0c 	st  %o0, [ %g1 + 0xc ]
    33b8:	c0 22 00 00 	clr  [ %o0 ]
    33bc:	c2 02 20 0c 	ld  [ %o0 + 0xc ], %g1
    33c0:	92 0a 7f f8 	and  %o1, -8, %o1
    33c4:	d0 20 60 08 	st  %o0, [ %g1 + 8 ]
    33c8:	92 02 7f f8 	add  %o1, -8, %o1
    33cc:	d2 22 20 04 	st  %o1, [ %o0 + 4 ]
    33d0:	82 02 00 09 	add  %o0, %o1, %g1
    33d4:	05 20 00 00 	sethi  %hi(0x80000000), %g2
    33d8:	d2 22 00 09 	st  %o1, [ %o0 + %o1 ]
    33dc:	81 c3 e0 08 	retl 
    33e0:	c4 20 60 04 	st  %g2, [ %g1 + 4 ]

000033e4 <brel>:
    33e4:	c2 02 3f f8 	ld  [ %o0 + -8 ], %g1
    33e8:	80 a0 60 00 	cmp  %g1, 0
    33ec:	02 80 00 16 	be  3444 <brel+0x60>
    33f0:	84 02 3f f8 	add  %o0, -8, %g2
    33f4:	84 20 80 01 	sub  %g2, %g1, %g2
    33f8:	c2 02 3f fc 	ld  [ %o0 + -4 ], %g1
    33fc:	c6 00 a0 04 	ld  [ %g2 + 4 ], %g3
    3400:	82 20 c0 01 	sub  %g3, %g1, %g1
    3404:	c2 20 a0 04 	st  %g1, [ %g2 + 4 ]
    3408:	86 00 80 01 	add  %g2, %g1, %g3
    340c:	c8 00 e0 04 	ld  [ %g3 + 4 ], %g4
    3410:	80 a1 20 00 	cmp  %g4, 0
    3414:	04 80 00 0a 	ble  343c <brel+0x58>
    3418:	01 00 00 00 	nop 
    341c:	da 00 e0 0c 	ld  [ %g3 + 0xc ], %o5
    3420:	82 00 40 04 	add  %g1, %g4, %g1
    3424:	d8 00 e0 08 	ld  [ %g3 + 8 ], %o4
    3428:	c2 20 a0 04 	st  %g1, [ %g2 + 4 ]
    342c:	d8 23 60 08 	st  %o4, [ %o5 + 8 ]
    3430:	c8 00 e0 08 	ld  [ %g3 + 8 ], %g4
    3434:	86 00 80 01 	add  %g2, %g1, %g3
    3438:	da 21 20 0c 	st  %o5, [ %g4 + 0xc ]
    343c:	81 c3 e0 08 	retl 
    3440:	c2 20 c0 00 	st  %g1, [ %g3 ]
    3444:	07 00 00 41 	sethi  %hi(0x10400), %g3
    3448:	86 10 e3 a0 	or  %g3, 0x3a0, %g3	! 107a0 <freelist>
    344c:	c2 00 e0 0c 	ld  [ %g3 + 0xc ], %g1
    3450:	c6 22 00 00 	st  %g3, [ %o0 ]
    3454:	c2 22 20 04 	st  %g1, [ %o0 + 4 ]
    3458:	c4 20 e0 0c 	st  %g2, [ %g3 + 0xc ]
    345c:	c2 02 3f fc 	ld  [ %o0 + -4 ], %g1
    3460:	c6 02 20 04 	ld  [ %o0 + 4 ], %g3
    3464:	82 20 00 01 	neg  %g1
    3468:	c4 20 e0 08 	st  %g2, [ %g3 + 8 ]
    346c:	10 bf ff e7 	b  3408 <brel+0x24>
    3470:	c2 22 3f fc 	st  %g1, [ %o0 + -4 ]
    3474:	00 00 3a f8 	unimp  0x3af8
    3478:	00 00 39 a0 	unimp  0x39a0
    347c:	00 00 39 a0 	unimp  0x39a0
    3480:	00 00 39 a0 	unimp  0x39a0
    3484:	00 00 39 a0 	unimp  0x39a0
    3488:	00 00 39 a0 	unimp  0x39a0
    348c:	00 00 39 a0 	unimp  0x39a0
    3490:	00 00 39 a0 	unimp  0x39a0
    3494:	00 00 39 a0 	unimp  0x39a0
    3498:	00 00 39 a0 	unimp  0x39a0
    349c:	00 00 39 a0 	unimp  0x39a0
    34a0:	00 00 39 a0 	unimp  0x39a0
    34a4:	00 00 39 a0 	unimp  0x39a0
    34a8:	00 00 39 a0 	unimp  0x39a0
    34ac:	00 00 39 a0 	unimp  0x39a0
    34b0:	00 00 39 a0 	unimp  0x39a0
    34b4:	00 00 39 a0 	unimp  0x39a0
    34b8:	00 00 39 a0 	unimp  0x39a0
    34bc:	00 00 39 a0 	unimp  0x39a0
    34c0:	00 00 39 a0 	unimp  0x39a0
    34c4:	00 00 39 a0 	unimp  0x39a0
    34c8:	00 00 39 a0 	unimp  0x39a0
    34cc:	00 00 39 a0 	unimp  0x39a0
    34d0:	00 00 3c bc 	unimp  0x3cbc
    34d4:	00 00 39 a0 	unimp  0x39a0
    34d8:	00 00 39 a0 	unimp  0x39a0
    34dc:	00 00 39 a0 	unimp  0x39a0
    34e0:	00 00 39 a0 	unimp  0x39a0
    34e4:	00 00 39 a0 	unimp  0x39a0
    34e8:	00 00 39 a0 	unimp  0x39a0
    34ec:	00 00 39 a0 	unimp  0x39a0
    34f0:	00 00 39 a0 	unimp  0x39a0
    34f4:	00 00 3a fc 	unimp  0x3afc
    34f8:	00 00 39 a0 	unimp  0x39a0
    34fc:	00 00 3c 70 	unimp  0x3c70
    3500:	00 00 3f 00 	unimp  0x3f00
    3504:	00 00 39 a0 	unimp  0x39a0
    3508:	00 00 3e 90 	unimp  0x3e90
    350c:	00 00 39 a0 	unimp  0x39a0
    3510:	00 00 39 a0 	unimp  0x39a0
    3514:	00 00 3f 00 	unimp  0x3f00
    3518:	00 00 39 a0 	unimp  0x39a0
    351c:	00 00 39 a0 	unimp  0x39a0
    3520:	00 00 39 a0 	unimp  0x39a0
    3524:	00 00 39 a0 	unimp  0x39a0
    3528:	00 00 39 a0 	unimp  0x39a0
    352c:	00 00 3f 0c 	unimp  0x3f0c
    3530:	00 00 3e 54 	unimp  0x3e54
    3534:	00 00 39 a0 	unimp  0x39a0
    3538:	00 00 39 a0 	unimp  0x39a0
    353c:	00 00 3d 70 	unimp  0x3d70
    3540:	00 00 39 a0 	unimp  0x39a0
    3544:	00 00 3d 68 	unimp  0x3d68
    3548:	00 00 39 a0 	unimp  0x39a0
    354c:	00 00 39 a0 	unimp  0x39a0
    3550:	00 00 3d 1c 	unimp  0x3d1c
    3554:	00 00 3a 3c 	unimp  0x3a3c
    3558:	00 00 38 e4 	unimp  0x38e4
    355c:	00 00 38 e4 	unimp  0x38e4
    3560:	00 00 3a 30 	unimp  0x3a30
    3564:	00 00 38 e4 	unimp  0x38e4
    3568:	00 00 38 e4 	unimp  0x38e4
    356c:	00 00 38 e4 	unimp  0x38e4
    3570:	00 00 38 e4 	unimp  0x38e4
    3574:	00 00 38 e4 	unimp  0x38e4
    3578:	00 00 38 e4 	unimp  0x38e4
    357c:	00 00 38 e4 	unimp  0x38e4
    3580:	00 00 3a 24 	unimp  0x3a24
    3584:	00 00 38 e4 	unimp  0x38e4
    3588:	00 00 3a 18 	unimp  0x3a18
    358c:	00 00 38 e4 	unimp  0x38e4
    3590:	00 00 38 e4 	unimp  0x38e4
    3594:	00 00 3a 0c 	unimp  0x3a0c

00003598 <number>:
    3598:	9d e3 bf 58 	save  %sp, -168, %sp
    359c:	e4 07 a0 5c 	ld  [ %fp + 0x5c ], %l2
    35a0:	a0 10 00 19 	mov  %i1, %l0
    35a4:	80 8c a0 40 	btst  0x40, %l2
    35a8:	02 80 00 77 	be  3784 <number+0x1ec>
    35ac:	a2 10 00 1a 	mov  %i2, %l1
    35b0:	27 00 00 41 	sethi  %hi(0x10400), %l3
    35b4:	a6 14 e3 40 	or  %l3, 0x340, %l3	! 10740 <__clz_tab+0x6d0>
    35b8:	80 8c a0 10 	btst  0x10, %l2
    35bc:	32 80 00 02 	bne,a   35c4 <number+0x2c>
    35c0:	a4 0c bf fe 	and  %l2, -2, %l2
    35c4:	82 06 ff fe 	add  %i3, -2, %g1
    35c8:	80 a0 60 22 	cmp  %g1, 0x22
    35cc:	18 80 00 86 	bgu  37e4 <number+0x24c>
    35d0:	82 0c a0 01 	and  %l2, 1, %g1
    35d4:	80 a0 00 01 	cmp  %g0, %g1
    35d8:	aa 10 20 00 	clr  %l5
    35dc:	a8 40 3f ff 	addx  %g0, -1, %l4
    35e0:	80 8c a0 02 	btst  2, %l2
    35e4:	a8 0d 20 f0 	and  %l4, 0xf0, %l4
    35e8:	02 80 00 09 	be  360c <number+0x74>
    35ec:	a8 05 20 30 	add  %l4, 0x30, %l4
    35f0:	80 a4 20 00 	cmp  %l0, 0
    35f4:	16 80 00 7f 	bge  37f0 <number+0x258>
    35f8:	80 8c a0 04 	btst  4, %l2
    35fc:	a2 a0 00 11 	subcc  %g0, %l1, %l1
    3600:	b8 07 3f ff 	add  %i4, -1, %i4
    3604:	a0 60 00 10 	subx  %g0, %l0, %l0
    3608:	aa 10 20 2d 	mov  0x2d, %l5
    360c:	ac 8c a0 20 	andcc  %l2, 0x20, %l6
    3610:	02 80 00 08 	be  3630 <number+0x98>
    3614:	80 94 00 11 	orcc  %l0, %l1, %g0
    3618:	80 a6 e0 10 	cmp  %i3, 0x10
    361c:	02 80 00 86 	be  3834 <number+0x29c>
    3620:	82 1e e0 08 	xor  %i3, 8, %g1
    3624:	80 a0 00 01 	cmp  %g0, %g1
    3628:	b8 47 3f ff 	addx  %i4, -1, %i4
    362c:	80 94 00 11 	orcc  %l0, %l1, %g0
    3630:	12 80 00 59 	bne  3794 <number+0x1fc>
    3634:	b4 10 20 00 	clr  %i2
    3638:	82 10 20 30 	mov  0x30, %g1
    363c:	9e 10 20 00 	clr  %o7
    3640:	c2 2f bf b8 	stb  %g1, [ %fp + -72 ]
    3644:	b4 10 20 01 	mov  1, %i2
    3648:	b2 07 bf b8 	add  %fp, -72, %i1
    364c:	80 a6 80 1d 	cmp  %i2, %i5
    3650:	16 80 00 03 	bge  365c <number+0xc4>
    3654:	84 10 00 1a 	mov  %i2, %g2
    3658:	84 10 00 1d 	mov  %i5, %g2
    365c:	80 8c a0 11 	btst  0x11, %l2
    3660:	12 80 00 0d 	bne  3694 <number+0xfc>
    3664:	88 27 00 02 	sub  %i4, %g2, %g4
    3668:	80 a1 20 00 	cmp  %g4, 0
    366c:	04 80 00 7c 	ble  385c <number+0x2c4>
    3670:	82 01 3f ff 	add  %g4, -1, %g1
    3674:	88 06 00 04 	add  %i0, %g4, %g4
    3678:	82 10 20 20 	mov  0x20, %g1
    367c:	c2 2e 00 00 	stb  %g1, [ %i0 ]
    3680:	b0 06 20 01 	inc  %i0
    3684:	80 a6 00 04 	cmp  %i0, %g4
    3688:	32 bf ff fe 	bne,a   3680 <number+0xe8>
    368c:	c2 2e 00 00 	stb  %g1, [ %i0 ]
    3690:	88 10 3f ff 	mov  -1, %g4
    3694:	80 8d 60 ff 	btst  0xff, %l5
    3698:	02 80 00 04 	be  36a8 <number+0x110>
    369c:	80 a5 a0 00 	cmp  %l6, 0
    36a0:	ea 2e 00 00 	stb  %l5, [ %i0 ]
    36a4:	b0 06 20 01 	inc  %i0
    36a8:	02 80 00 08 	be  36c8 <number+0x130>
    36ac:	80 8c a0 10 	btst  0x10, %l2
    36b0:	80 a6 e0 08 	cmp  %i3, 8
    36b4:	02 80 00 5c 	be  3824 <number+0x28c>
    36b8:	80 a6 e0 10 	cmp  %i3, 0x10
    36bc:	22 80 00 63 	be,a   3848 <number+0x2b0>
    36c0:	82 10 20 30 	mov  0x30, %g1
    36c4:	80 8c a0 10 	btst  0x10, %l2
    36c8:	12 80 00 0d 	bne  36fc <number+0x164>
    36cc:	80 a0 80 1a 	cmp  %g2, %i2
    36d0:	80 a1 20 00 	cmp  %g4, 0
    36d4:	04 80 00 64 	ble  3864 <number+0x2cc>
    36d8:	82 01 3f ff 	add  %g4, -1, %g1
    36dc:	88 06 00 04 	add  %i0, %g4, %g4
    36e0:	e8 2e 00 00 	stb  %l4, [ %i0 ]
    36e4:	b0 06 20 01 	inc  %i0
    36e8:	80 a6 00 04 	cmp  %i0, %g4
    36ec:	32 bf ff fe 	bne,a   36e4 <number+0x14c>
    36f0:	e8 2e 00 00 	stb  %l4, [ %i0 ]
    36f4:	88 10 3f ff 	mov  -1, %g4
    36f8:	80 a0 80 1a 	cmp  %g2, %i2
    36fc:	04 80 00 09 	ble  3720 <number+0x188>
    3700:	82 20 80 1a 	sub  %g2, %i2, %g1
    3704:	86 10 20 30 	mov  0x30, %g3
    3708:	82 06 00 01 	add  %i0, %g1, %g1
    370c:	c6 2e 00 00 	stb  %g3, [ %i0 ]
    3710:	b0 06 20 01 	inc  %i0
    3714:	80 a6 00 01 	cmp  %i0, %g1
    3718:	32 bf ff fe 	bne,a   3710 <number+0x178>
    371c:	c6 2e 00 00 	stb  %g3, [ %i0 ]
    3720:	82 10 00 0f 	mov  %o7, %g1
    3724:	84 10 00 18 	mov  %i0, %g2
    3728:	c6 0e 40 01 	ldub  [ %i1 + %g1 ], %g3
    372c:	c6 28 80 00 	stb  %g3, [ %g2 ]
    3730:	82 00 7f ff 	add  %g1, -1, %g1
    3734:	86 00 60 01 	add  %g1, 1, %g3
    3738:	80 a0 e0 00 	cmp  %g3, 0
    373c:	14 bf ff fb 	bg  3728 <number+0x190>
    3740:	84 00 a0 01 	inc  %g2
    3744:	82 38 00 0f 	xnor  %g0, %o7, %g1
    3748:	80 a1 20 00 	cmp  %g4, 0
    374c:	83 38 60 1f 	sra  %g1, 0x1f, %g1
    3750:	82 0b c0 01 	and  %o7, %g1, %g1
    3754:	82 00 60 01 	inc  %g1
    3758:	04 80 00 09 	ble  377c <number+0x1e4>
    375c:	b0 06 00 01 	add  %i0, %g1, %i0
    3760:	84 06 00 04 	add  %i0, %g4, %g2
    3764:	82 10 20 20 	mov  0x20, %g1
    3768:	c2 2e 00 00 	stb  %g1, [ %i0 ]
    376c:	b0 06 20 01 	inc  %i0
    3770:	80 a6 00 02 	cmp  %i0, %g2
    3774:	32 bf ff fe 	bne,a   376c <number+0x1d4>
    3778:	c2 2e 00 00 	stb  %g1, [ %i0 ]
    377c:	81 c7 e0 08 	ret 
    3780:	81 e8 00 00 	restore 
    3784:	27 00 00 41 	sethi  %hi(0x10400), %l3
    3788:	10 bf ff 8c 	b  35b8 <number+0x20>
    378c:	a6 14 e3 18 	or  %l3, 0x318, %l3	! 10718 <__clz_tab+0x6a8>
    3790:	b4 10 20 00 	clr  %i2
    3794:	b2 07 bf b8 	add  %fp, -72, %i1
    3798:	90 10 00 10 	mov  %l0, %o0
    379c:	92 10 00 11 	mov  %l1, %o1
    37a0:	94 10 20 00 	clr  %o2
    37a4:	40 00 0a 04 	call  5fb4 <__umoddi3>
    37a8:	96 10 00 1b 	mov  %i3, %o3
    37ac:	c2 0c c0 09 	ldub  [ %l3 + %o1 ], %g1
    37b0:	90 10 00 10 	mov  %l0, %o0
    37b4:	92 10 00 11 	mov  %l1, %o1
    37b8:	c2 2e 40 1a 	stb  %g1, [ %i1 + %i2 ]
    37bc:	94 10 20 00 	clr  %o2
    37c0:	96 10 00 1b 	mov  %i3, %o3
    37c4:	40 00 09 2f 	call  5c80 <__udivdi3>
    37c8:	b4 06 a0 01 	inc  %i2
    37cc:	a0 10 00 08 	mov  %o0, %l0
    37d0:	80 94 00 09 	orcc  %l0, %o1, %g0
    37d4:	12 bf ff f1 	bne  3798 <number+0x200>
    37d8:	a2 10 00 09 	mov  %o1, %l1
    37dc:	10 bf ff 9c 	b  364c <number+0xb4>
    37e0:	9e 06 bf ff 	add  %i2, -1, %o7
    37e4:	b0 10 20 00 	clr  %i0
    37e8:	81 c7 e0 08 	ret 
    37ec:	81 e8 00 00 	restore 
    37f0:	32 80 00 08 	bne,a   3810 <number+0x278>
    37f4:	b8 07 3f ff 	add  %i4, -1, %i4
    37f8:	80 8c a0 08 	btst  8, %l2
    37fc:	02 bf ff 85 	be  3610 <number+0x78>
    3800:	ac 8c a0 20 	andcc  %l2, 0x20, %l6
    3804:	b8 07 3f ff 	add  %i4, -1, %i4
    3808:	10 bf ff 82 	b  3610 <number+0x78>
    380c:	aa 10 20 20 	mov  0x20, %l5
    3810:	ac 8c a0 20 	andcc  %l2, 0x20, %l6
    3814:	02 bf ff 86 	be  362c <number+0x94>
    3818:	aa 10 20 2b 	mov  0x2b, %l5
    381c:	10 bf ff 80 	b  361c <number+0x84>
    3820:	80 a6 e0 10 	cmp  %i3, 0x10
    3824:	82 10 20 30 	mov  0x30, %g1
    3828:	c2 2e 00 00 	stb  %g1, [ %i0 ]
    382c:	10 bf ff a6 	b  36c4 <number+0x12c>
    3830:	b0 06 20 01 	inc  %i0
    3834:	80 94 00 11 	orcc  %l0, %l1, %g0
    3838:	12 bf ff d6 	bne  3790 <number+0x1f8>
    383c:	b8 07 3f fe 	add  %i4, -2, %i4
    3840:	10 bf ff 7f 	b  363c <number+0xa4>
    3844:	82 10 20 30 	mov  0x30, %g1
    3848:	c2 2e 00 00 	stb  %g1, [ %i0 ]
    384c:	82 10 20 78 	mov  0x78, %g1
    3850:	c2 2e 20 01 	stb  %g1, [ %i0 + 1 ]
    3854:	10 bf ff 9c 	b  36c4 <number+0x12c>
    3858:	b0 06 20 02 	add  %i0, 2, %i0
    385c:	10 bf ff 8e 	b  3694 <number+0xfc>
    3860:	88 10 00 01 	mov  %g1, %g4
    3864:	10 bf ff a5 	b  36f8 <number+0x160>
    3868:	88 10 00 01 	mov  %g1, %g4

0000386c <ee_vsprintf>:
    386c:	9d e3 be d0 	save  %sp, -304, %sp
    3870:	c4 0e 40 00 	ldub  [ %i1 ], %g2
    3874:	83 28 a0 18 	sll  %g2, 0x18, %g1
    3878:	80 a0 60 00 	cmp  %g1, 0
    387c:	02 80 02 2d 	be  4130 <ee_vsprintf+0x8c4>
    3880:	ba 10 00 18 	mov  %i0, %i5
    3884:	27 00 00 0d 	sethi  %hi(0x3400), %l3
    3888:	37 00 00 0d 	sethi  %hi(0x3400), %i3
    388c:	23 00 00 40 	sethi  %hi(0x10000), %l1
    3890:	a4 07 bf b0 	add  %fp, -80, %l2
    3894:	a8 07 a0 60 	add  %fp, 0x60, %l4
    3898:	10 80 00 08 	b  38b8 <ee_vsprintf+0x4c>
    389c:	21 00 00 41 	sethi  %hi(0x10400), %l0
    38a0:	ba 07 60 01 	inc  %i5
    38a4:	c4 0e 60 01 	ldub  [ %i1 + 1 ], %g2
    38a8:	83 28 a0 18 	sll  %g2, 0x18, %g1
    38ac:	80 a0 60 00 	cmp  %g1, 0
    38b0:	02 80 00 4e 	be  39e8 <ee_vsprintf+0x17c>
    38b4:	b2 06 60 01 	inc  %i1
    38b8:	83 38 60 18 	sra  %g1, 0x18, %g1
    38bc:	80 a0 60 25 	cmp  %g1, 0x25
    38c0:	32 bf ff f8 	bne,a   38a0 <ee_vsprintf+0x34>
    38c4:	c4 2f 40 00 	stb  %g2, [ %i5 ]
    38c8:	aa 10 20 00 	clr  %l5
    38cc:	c2 0e 60 01 	ldub  [ %i1 + 1 ], %g1
    38d0:	86 00 7f e0 	add  %g1, -32, %g3
    38d4:	86 08 e0 ff 	and  %g3, 0xff, %g3
    38d8:	80 a0 e0 10 	cmp  %g3, 0x10
    38dc:	08 80 00 47 	bleu  39f8 <ee_vsprintf+0x18c>
    38e0:	84 06 60 01 	add  %i1, 1, %g2
    38e4:	86 00 7f d0 	add  %g1, -48, %g3
    38e8:	86 08 e0 ff 	and  %g3, 0xff, %g3
    38ec:	80 a0 e0 09 	cmp  %g3, 9
    38f0:	18 80 00 5c 	bgu  3a60 <ee_vsprintf+0x1f4>
    38f4:	87 28 60 18 	sll  %g1, 0x18, %g3
    38f8:	b8 10 20 00 	clr  %i4
    38fc:	86 07 00 1c 	add  %i4, %i4, %g3
    3900:	83 28 60 18 	sll  %g1, 0x18, %g1
    3904:	83 38 60 18 	sra  %g1, 0x18, %g1
    3908:	b9 2f 20 03 	sll  %i4, 3, %i4
    390c:	84 00 a0 01 	inc  %g2
    3910:	b8 00 c0 1c 	add  %g3, %i4, %i4
    3914:	b8 07 00 01 	add  %i4, %g1, %i4
    3918:	c2 08 80 00 	ldub  [ %g2 ], %g1
    391c:	86 00 7f d0 	add  %g1, -48, %g3
    3920:	86 08 e0 ff 	and  %g3, 0xff, %g3
    3924:	80 a0 e0 09 	cmp  %g3, 9
    3928:	08 bf ff f5 	bleu  38fc <ee_vsprintf+0x90>
    392c:	b8 07 3f d0 	add  %i4, -48, %i4
    3930:	87 28 60 18 	sll  %g1, 0x18, %g3
    3934:	b2 10 00 02 	mov  %g2, %i1
    3938:	87 38 e0 18 	sra  %g3, 0x18, %g3
    393c:	80 a0 e0 2e 	cmp  %g3, 0x2e
    3940:	02 80 00 51 	be  3a84 <ee_vsprintf+0x218>
    3944:	ac 10 3f ff 	mov  -1, %l6
    3948:	84 08 7f df 	and  %g1, -33, %g2
    394c:	85 28 a0 18 	sll  %g2, 0x18, %g2
    3950:	85 38 a0 18 	sra  %g2, 0x18, %g2
    3954:	80 a0 a0 4c 	cmp  %g2, 0x4c
    3958:	32 80 00 40 	bne,a   3a58 <ee_vsprintf+0x1ec>
    395c:	86 10 3f ff 	mov  -1, %g3
    3960:	c2 0e 60 01 	ldub  [ %i1 + 1 ], %g1
    3964:	84 08 7f df 	and  %g1, -33, %g2
    3968:	85 28 a0 18 	sll  %g2, 0x18, %g2
    396c:	85 38 a0 18 	sra  %g2, 0x18, %g2
    3970:	80 a0 a0 4c 	cmp  %g2, 0x4c
    3974:	12 80 02 e6 	bne  450c <ee_vsprintf+0xca0>
    3978:	86 06 60 01 	add  %i1, 1, %g3
    397c:	c2 0e 60 02 	ldub  [ %i1 + 2 ], %g1
    3980:	86 10 20 6c 	mov  0x6c, %g3
    3984:	b2 06 60 02 	add  %i1, 2, %i1
    3988:	88 10 20 6c 	mov  0x6c, %g4
    398c:	84 00 7f bf 	add  %g1, -65, %g2
    3990:	84 08 a0 ff 	and  %g2, 0xff, %g2
    3994:	80 a0 a0 37 	cmp  %g2, 0x37
    3998:	08 80 00 2c 	bleu  3a48 <ee_vsprintf+0x1dc>
    399c:	9e 16 e0 74 	or  %i3, 0x74, %o7
    39a0:	83 28 60 18 	sll  %g1, 0x18, %g1
    39a4:	83 38 60 18 	sra  %g1, 0x18, %g1
    39a8:	80 a0 60 25 	cmp  %g1, 0x25
    39ac:	02 80 00 08 	be  39cc <ee_vsprintf+0x160>
    39b0:	82 10 20 25 	mov  0x25, %g1
    39b4:	c2 2f 40 00 	stb  %g1, [ %i5 ]
    39b8:	ba 07 60 01 	inc  %i5
    39bc:	c4 4e 40 00 	ldsb  [ %i1 ], %g2
    39c0:	80 a0 a0 00 	cmp  %g2, 0
    39c4:	02 80 00 09 	be  39e8 <ee_vsprintf+0x17c>
    39c8:	c2 0e 40 00 	ldub  [ %i1 ], %g1
    39cc:	c2 2f 40 00 	stb  %g1, [ %i5 ]
    39d0:	ba 07 60 01 	inc  %i5
    39d4:	c4 0e 60 01 	ldub  [ %i1 + 1 ], %g2
    39d8:	83 28 a0 18 	sll  %g2, 0x18, %g1
    39dc:	80 a0 60 00 	cmp  %g1, 0
    39e0:	12 bf ff b6 	bne  38b8 <ee_vsprintf+0x4c>
    39e4:	b2 06 60 01 	inc  %i1
    39e8:	b0 27 40 18 	sub  %i5, %i0, %i0
    39ec:	c0 2f 40 00 	clrb  [ %i5 ]
    39f0:	81 c7 e0 08 	ret 
    39f4:	81 e8 00 00 	restore 
    39f8:	88 14 e1 54 	or  %l3, 0x154, %g4
    39fc:	87 28 e0 02 	sll  %g3, 2, %g3
    3a00:	c6 01 00 03 	ld  [ %g4 + %g3 ], %g3
    3a04:	81 c0 c0 00 	jmp  %g3
    3a08:	01 00 00 00 	nop 
    3a0c:	aa 15 60 01 	or  %l5, 1, %l5
    3a10:	10 bf ff af 	b  38cc <ee_vsprintf+0x60>
    3a14:	b2 10 00 02 	mov  %g2, %i1
    3a18:	aa 15 60 10 	or  %l5, 0x10, %l5
    3a1c:	10 bf ff ac 	b  38cc <ee_vsprintf+0x60>
    3a20:	b2 10 00 02 	mov  %g2, %i1
    3a24:	aa 15 60 04 	or  %l5, 4, %l5
    3a28:	10 bf ff a9 	b  38cc <ee_vsprintf+0x60>
    3a2c:	b2 10 00 02 	mov  %g2, %i1
    3a30:	aa 15 60 20 	or  %l5, 0x20, %l5
    3a34:	10 bf ff a6 	b  38cc <ee_vsprintf+0x60>
    3a38:	b2 10 00 02 	mov  %g2, %i1
    3a3c:	aa 15 60 08 	or  %l5, 8, %l5
    3a40:	10 bf ff a3 	b  38cc <ee_vsprintf+0x60>
    3a44:	b2 10 00 02 	mov  %g2, %i1
    3a48:	85 28 a0 02 	sll  %g2, 2, %g2
    3a4c:	c4 03 c0 02 	ld  [ %o7 + %g2 ], %g2
    3a50:	81 c0 80 00 	jmp  %g2
    3a54:	01 00 00 00 	nop 
    3a58:	10 bf ff cd 	b  398c <ee_vsprintf+0x120>
    3a5c:	88 10 20 00 	clr  %g4	! 0 <_start>
    3a60:	89 38 e0 18 	sra  %g3, 0x18, %g4
    3a64:	80 a1 20 2a 	cmp  %g4, 0x2a
    3a68:	02 80 01 2b 	be  3f14 <ee_vsprintf+0x6a8>
    3a6c:	87 38 e0 18 	sra  %g3, 0x18, %g3
    3a70:	b2 10 00 02 	mov  %g2, %i1
    3a74:	b8 10 3f ff 	mov  -1, %i4
    3a78:	80 a0 e0 2e 	cmp  %g3, 0x2e
    3a7c:	12 bf ff b3 	bne  3948 <ee_vsprintf+0xdc>
    3a80:	ac 10 3f ff 	mov  -1, %l6
    3a84:	c2 0e 60 01 	ldub  [ %i1 + 1 ], %g1
    3a88:	86 00 7f d0 	add  %g1, -48, %g3
    3a8c:	86 08 e0 ff 	and  %g3, 0xff, %g3
    3a90:	80 a0 e0 09 	cmp  %g3, 9
    3a94:	18 80 00 12 	bgu  3adc <ee_vsprintf+0x270>
    3a98:	84 06 60 01 	add  %i1, 1, %g2
    3a9c:	ac 10 20 00 	clr  %l6
    3aa0:	86 05 80 16 	add  %l6, %l6, %g3
    3aa4:	83 28 60 18 	sll  %g1, 0x18, %g1
    3aa8:	83 38 60 18 	sra  %g1, 0x18, %g1
    3aac:	ad 2d a0 03 	sll  %l6, 3, %l6
    3ab0:	84 00 a0 01 	inc  %g2
    3ab4:	ac 00 c0 16 	add  %g3, %l6, %l6
    3ab8:	ac 05 80 01 	add  %l6, %g1, %l6
    3abc:	c2 08 80 00 	ldub  [ %g2 ], %g1
    3ac0:	86 00 7f d0 	add  %g1, -48, %g3
    3ac4:	86 08 e0 ff 	and  %g3, 0xff, %g3
    3ac8:	80 a0 e0 09 	cmp  %g3, 9
    3acc:	08 bf ff f5 	bleu  3aa0 <ee_vsprintf+0x234>
    3ad0:	ac 05 bf d0 	add  %l6, -48, %l6
    3ad4:	10 bf ff 9d 	b  3948 <ee_vsprintf+0xdc>
    3ad8:	b2 10 00 02 	mov  %g2, %i1
    3adc:	87 28 60 18 	sll  %g1, 0x18, %g3
    3ae0:	87 38 e0 18 	sra  %g3, 0x18, %g3
    3ae4:	80 a0 e0 2a 	cmp  %g3, 0x2a
    3ae8:	02 80 01 89 	be  410c <ee_vsprintf+0x8a0>
    3aec:	ac 10 20 00 	clr  %l6
    3af0:	10 bf ff 96 	b  3948 <ee_vsprintf+0xdc>
    3af4:	b2 10 00 02 	mov  %g2, %i1
    3af8:	aa 15 60 40 	or  %l5, 0x40, %l5
    3afc:	80 a0 e0 6c 	cmp  %g3, 0x6c
    3b00:	02 80 01 3a 	be  3fe8 <ee_vsprintf+0x77c>
    3b04:	84 10 20 00 	clr  %g2
    3b08:	de 06 80 00 	ld  [ %i2 ], %o7
    3b0c:	b4 06 a0 04 	add  %i2, 4, %i2
    3b10:	c2 0b c0 02 	ldub  [ %o7 + %g2 ], %g1
    3b14:	86 10 20 00 	clr  %g3
    3b18:	96 10 20 30 	mov  0x30, %o3
    3b1c:	80 a0 60 00 	cmp  %g1, 0
    3b20:	12 80 00 0e 	bne  3b58 <ee_vsprintf+0x2ec>
    3b24:	98 10 20 2e 	mov  0x2e, %o4
    3b28:	82 07 80 03 	add  %fp, %g3, %g1
    3b2c:	d6 28 7f b0 	stb  %o3, [ %g1 + -80 ]
    3b30:	84 00 a0 01 	inc  %g2
    3b34:	80 a0 a0 04 	cmp  %g2, 4
    3b38:	02 80 00 2b 	be  3be4 <ee_vsprintf+0x378>
    3b3c:	86 00 e0 01 	inc  %g3
    3b40:	82 07 80 03 	add  %fp, %g3, %g1
    3b44:	d8 28 7f b0 	stb  %o4, [ %g1 + -80 ]
    3b48:	c2 0b c0 02 	ldub  [ %o7 + %g2 ], %g1
    3b4c:	80 a0 60 00 	cmp  %g1, 0
    3b50:	02 bf ff f6 	be  3b28 <ee_vsprintf+0x2bc>
    3b54:	86 00 e0 01 	inc  %g3
    3b58:	80 a0 60 63 	cmp  %g1, 0x63
    3b5c:	04 80 00 f7 	ble  3f38 <ee_vsprintf+0x6cc>
    3b60:	80 a0 60 09 	cmp  %g1, 9
    3b64:	89 38 60 1f 	sra  %g1, 0x1f, %g4
    3b68:	81 81 20 00 	mov  %g4, %y
    3b6c:	01 00 00 00 	nop 
    3b70:	01 00 00 00 	nop 
    3b74:	01 00 00 00 	nop 
    3b78:	9a 78 60 64 	sdiv  %g1, 0x64, %o5
    3b7c:	88 14 23 18 	or  %l0, 0x318, %g4
    3b80:	92 5b 60 64 	smul  %o5, 0x64, %o1
    3b84:	da 09 00 0d 	ldub  [ %g4 + %o5 ], %o5
    3b88:	94 07 80 03 	add  %fp, %g3, %o2
    3b8c:	82 20 40 09 	sub  %g1, %o1, %g1
    3b90:	da 2a bf b0 	stb  %o5, [ %o2 + -80 ]
    3b94:	86 00 e0 02 	add  %g3, 2, %g3
    3b98:	93 38 60 1f 	sra  %g1, 0x1f, %o1
    3b9c:	81 82 60 00 	mov  %o1, %y
    3ba0:	01 00 00 00 	nop 
    3ba4:	01 00 00 00 	nop 
    3ba8:	01 00 00 00 	nop 
    3bac:	9a 78 60 0a 	sdiv  %g1, 0xa, %o5
    3bb0:	d0 09 00 0d 	ldub  [ %g4 + %o5 ], %o0
    3bb4:	92 03 40 0d 	add  %o5, %o5, %o1
    3bb8:	d0 2a bf b1 	stb  %o0, [ %o2 + -79 ]
    3bbc:	9b 2b 60 03 	sll  %o5, 3, %o5
    3bc0:	9a 02 40 0d 	add  %o1, %o5, %o5
    3bc4:	82 20 40 0d 	sub  %g1, %o5, %g1
    3bc8:	9a 07 80 03 	add  %fp, %g3, %o5
    3bcc:	c2 09 00 01 	ldub  [ %g4 + %g1 ], %g1
    3bd0:	c2 2b 7f b0 	stb  %g1, [ %o5 + -80 ]
    3bd4:	84 00 a0 01 	inc  %g2
    3bd8:	80 a0 a0 04 	cmp  %g2, 4
    3bdc:	12 bf ff d9 	bne  3b40 <ee_vsprintf+0x2d4>
    3be0:	86 00 e0 01 	inc  %g3
    3be4:	80 8d 60 10 	btst  0x10, %l5
    3be8:	32 80 00 0f 	bne,a   3c24 <ee_vsprintf+0x3b8>
    3bec:	82 10 20 00 	clr  %g1
    3bf0:	80 a7 00 03 	cmp  %i4, %g3
    3bf4:	04 80 02 1f 	ble  4470 <ee_vsprintf+0xc04>
    3bf8:	82 07 3f ff 	add  %i4, -1, %g1
    3bfc:	82 27 00 03 	sub  %i4, %g3, %g1
    3c00:	84 10 20 20 	mov  0x20, %g2
    3c04:	82 07 40 01 	add  %i5, %g1, %g1
    3c08:	c4 2f 40 00 	stb  %g2, [ %i5 ]
    3c0c:	ba 07 60 01 	inc  %i5
    3c10:	80 a7 40 01 	cmp  %i5, %g1
    3c14:	32 bf ff fe 	bne,a   3c0c <ee_vsprintf+0x3a0>
    3c18:	c4 2f 40 00 	stb  %g2, [ %i5 ]
    3c1c:	b8 00 ff ff 	add  %g3, -1, %i4
    3c20:	82 10 20 00 	clr  %g1
    3c24:	c4 0c 80 01 	ldub  [ %l2 + %g1 ], %g2
    3c28:	c4 2f 40 01 	stb  %g2, [ %i5 + %g1 ]
    3c2c:	82 00 60 01 	inc  %g1
    3c30:	80 a0 40 03 	cmp  %g1, %g3
    3c34:	32 bf ff fd 	bne,a   3c28 <ee_vsprintf+0x3bc>
    3c38:	c4 0c 80 01 	ldub  [ %l2 + %g1 ], %g2
    3c3c:	80 a7 00 01 	cmp  %i4, %g1
    3c40:	04 80 00 0a 	ble  3c68 <ee_vsprintf+0x3fc>
    3c44:	ba 07 40 01 	add  %i5, %g1, %i5
    3c48:	82 27 00 01 	sub  %i4, %g1, %g1
    3c4c:	84 10 20 20 	mov  0x20, %g2
    3c50:	82 07 40 01 	add  %i5, %g1, %g1
    3c54:	c4 2f 40 00 	stb  %g2, [ %i5 ]
    3c58:	ba 07 60 01 	inc  %i5
    3c5c:	80 a7 40 01 	cmp  %i5, %g1
    3c60:	32 bf ff fe 	bne,a   3c58 <ee_vsprintf+0x3ec>
    3c64:	c4 2f 40 00 	stb  %g2, [ %i5 ]
    3c68:	10 bf ff 10 	b  38a8 <ee_vsprintf+0x3c>
    3c6c:	c4 0e 60 01 	ldub  [ %i1 + 1 ], %g2
    3c70:	80 8d 60 10 	btst  0x10, %l5
    3c74:	32 80 00 ca 	bne,a   3f9c <ee_vsprintf+0x730>
    3c78:	c2 06 80 00 	ld  [ %i2 ], %g1
    3c7c:	b8 07 3f ff 	add  %i4, -1, %i4
    3c80:	80 a7 20 00 	cmp  %i4, 0
    3c84:	04 80 00 c5 	ble  3f98 <ee_vsprintf+0x72c>
    3c88:	82 10 20 20 	mov  0x20, %g1
    3c8c:	84 07 40 1c 	add  %i5, %i4, %g2
    3c90:	c2 2f 40 00 	stb  %g1, [ %i5 ]
    3c94:	ba 07 60 01 	inc  %i5
    3c98:	80 a7 40 02 	cmp  %i5, %g2
    3c9c:	32 bf ff fe 	bne,a   3c94 <ee_vsprintf+0x428>
    3ca0:	c2 2f 40 00 	stb  %g1, [ %i5 ]
    3ca4:	c2 06 80 00 	ld  [ %i2 ], %g1
    3ca8:	b4 06 a0 04 	add  %i2, 4, %i2
    3cac:	c2 2f 40 00 	stb  %g1, [ %i5 ]
    3cb0:	ba 07 60 01 	inc  %i5
    3cb4:	10 bf fe fd 	b  38a8 <ee_vsprintf+0x3c>
    3cb8:	c4 0e 60 01 	ldub  [ %i1 + 1 ], %g2
    3cbc:	aa 15 60 40 	or  %l5, 0x40, %l5
    3cc0:	96 10 20 10 	mov  0x10, %o3
    3cc4:	86 18 e0 6c 	xor  %g3, 0x6c, %g3
    3cc8:	80 a0 00 03 	cmp  %g0, %g3
    3ccc:	82 60 3f ff 	subx  %g0, -1, %g1
    3cd0:	80 a1 20 6c 	cmp  %g4, 0x6c
    3cd4:	02 80 00 19 	be  3d38 <ee_vsprintf+0x4cc>
    3cd8:	80 88 60 ff 	btst  0xff, %g1
    3cdc:	80 88 60 ff 	btst  0xff, %g1
    3ce0:	32 80 00 ab 	bne,a   3f8c <ee_vsprintf+0x720>
    3ce4:	d4 06 80 00 	ld  [ %i2 ], %o2
    3ce8:	80 8d 60 02 	btst  2, %l5
    3cec:	02 80 00 a5 	be  3f80 <ee_vsprintf+0x714>
    3cf0:	d4 06 80 00 	ld  [ %i2 ], %o2
    3cf4:	b4 06 a0 04 	add  %i2, 4, %i2
    3cf8:	93 3a a0 1f 	sra  %o2, 0x1f, %o1
    3cfc:	90 10 00 1d 	mov  %i5, %o0
    3d00:	ea 23 a0 5c 	st  %l5, [ %sp + 0x5c ]
    3d04:	98 10 00 1c 	mov  %i4, %o4
    3d08:	7f ff fe 24 	call  3598 <number>
    3d0c:	9a 10 00 16 	mov  %l6, %o5
    3d10:	c4 0e 60 01 	ldub  [ %i1 + 1 ], %g2
    3d14:	10 bf fe e5 	b  38a8 <ee_vsprintf+0x3c>
    3d18:	ba 10 00 08 	mov  %o0, %i5
    3d1c:	86 18 e0 6c 	xor  %g3, 0x6c, %g3
    3d20:	80 a0 00 03 	cmp  %g0, %g3
    3d24:	82 60 3f ff 	subx  %g0, -1, %g1
    3d28:	80 a1 20 6c 	cmp  %g4, 0x6c
    3d2c:	12 bf ff ec 	bne  3cdc <ee_vsprintf+0x470>
    3d30:	96 10 20 10 	mov  0x10, %o3
    3d34:	80 88 60 ff 	btst  0xff, %g1
    3d38:	02 bf ff ed 	be  3cec <ee_vsprintf+0x480>
    3d3c:	80 8d 60 02 	btst  2, %l5
    3d40:	92 10 00 1a 	mov  %i2, %o1
    3d44:	94 10 20 08 	mov  8, %o2
    3d48:	d6 27 bf 40 	st  %o3, [ %fp + -192 ]
    3d4c:	40 00 03 b0 	call  4c0c <__GI_memcpy>
    3d50:	90 07 bf 58 	add  %fp, -168, %o0
    3d54:	b4 06 a0 08 	add  %i2, 8, %i2
    3d58:	d2 07 bf 58 	ld  [ %fp + -168 ], %o1
    3d5c:	d4 07 bf 5c 	ld  [ %fp + -164 ], %o2
    3d60:	10 bf ff e7 	b  3cfc <ee_vsprintf+0x490>
    3d64:	d6 07 bf 40 	ld  [ %fp + -192 ], %o3
    3d68:	10 bf ff d7 	b  3cc4 <ee_vsprintf+0x458>
    3d6c:	96 10 20 0a 	mov  0xa, %o3
    3d70:	c8 06 80 00 	ld  [ %i2 ], %g4
    3d74:	80 a1 20 00 	cmp  %g4, 0
    3d78:	02 80 01 a6 	be  4410 <ee_vsprintf+0xba4>
    3d7c:	b4 06 a0 04 	add  %i2, 4, %i2
    3d80:	c2 49 00 00 	ldsb  [ %g4 ], %g1
    3d84:	80 a0 60 00 	cmp  %g1, 0
    3d88:	02 80 01 b8 	be  4468 <ee_vsprintf+0xbfc>
    3d8c:	80 a5 a0 00 	cmp  %l6, 0
    3d90:	02 80 01 b6 	be  4468 <ee_vsprintf+0xbfc>
    3d94:	82 10 00 04 	mov  %g4, %g1
    3d98:	10 80 00 05 	b  3dac <ee_vsprintf+0x540>
    3d9c:	82 00 60 01 	inc  %g1
    3da0:	02 80 00 08 	be  3dc0 <ee_vsprintf+0x554>
    3da4:	86 20 40 04 	sub  %g1, %g4, %g3
    3da8:	82 00 60 01 	inc  %g1
    3dac:	c4 48 40 00 	ldsb  [ %g1 ], %g2
    3db0:	80 a0 a0 00 	cmp  %g2, 0
    3db4:	32 bf ff fb 	bne,a   3da0 <ee_vsprintf+0x534>
    3db8:	ac 85 bf ff 	addcc  %l6, -1, %l6
    3dbc:	86 20 40 04 	sub  %g1, %g4, %g3
    3dc0:	80 8d 60 10 	btst  0x10, %l5
    3dc4:	12 80 00 0f 	bne  3e00 <ee_vsprintf+0x594>
    3dc8:	80 a0 e0 00 	cmp  %g3, 0
    3dcc:	80 a7 00 03 	cmp  %i4, %g3
    3dd0:	04 80 01 c5 	ble  44e4 <ee_vsprintf+0xc78>
    3dd4:	82 07 3f ff 	add  %i4, -1, %g1
    3dd8:	82 27 00 03 	sub  %i4, %g3, %g1
    3ddc:	84 10 20 20 	mov  0x20, %g2
    3de0:	82 07 40 01 	add  %i5, %g1, %g1
    3de4:	c4 2f 40 00 	stb  %g2, [ %i5 ]
    3de8:	ba 07 60 01 	inc  %i5
    3dec:	80 a7 40 01 	cmp  %i5, %g1
    3df0:	32 bf ff fe 	bne,a   3de8 <ee_vsprintf+0x57c>
    3df4:	c4 2f 40 00 	stb  %g2, [ %i5 ]
    3df8:	b8 00 ff ff 	add  %g3, -1, %i4
    3dfc:	80 a0 e0 00 	cmp  %g3, 0
    3e00:	04 80 00 09 	ble  3e24 <ee_vsprintf+0x5b8>
    3e04:	82 10 20 00 	clr  %g1
    3e08:	c4 09 00 01 	ldub  [ %g4 + %g1 ], %g2
    3e0c:	c4 2f 40 01 	stb  %g2, [ %i5 + %g1 ]
    3e10:	82 00 60 01 	inc  %g1
    3e14:	80 a0 40 03 	cmp  %g1, %g3
    3e18:	32 bf ff fd 	bne,a   3e0c <ee_vsprintf+0x5a0>
    3e1c:	c4 09 00 01 	ldub  [ %g4 + %g1 ], %g2
    3e20:	ba 07 40 03 	add  %i5, %g3, %i5
    3e24:	82 27 00 03 	sub  %i4, %g3, %g1
    3e28:	84 10 20 20 	mov  0x20, %g2
    3e2c:	80 a7 00 03 	cmp  %i4, %g3
    3e30:	04 bf ff 8e 	ble  3c68 <ee_vsprintf+0x3fc>
    3e34:	82 07 40 01 	add  %i5, %g1, %g1
    3e38:	c4 2f 40 00 	stb  %g2, [ %i5 ]
    3e3c:	ba 07 60 01 	inc  %i5
    3e40:	80 a7 40 01 	cmp  %i5, %g1
    3e44:	32 bf ff fe 	bne,a   3e3c <ee_vsprintf+0x5d0>
    3e48:	c4 2f 40 00 	stb  %g2, [ %i5 ]
    3e4c:	10 bf fe 97 	b  38a8 <ee_vsprintf+0x3c>
    3e50:	c4 0e 60 01 	ldub  [ %i1 + 1 ], %g2
    3e54:	80 a7 3f ff 	cmp  %i4, -1
    3e58:	22 80 00 62 	be,a   3fe0 <ee_vsprintf+0x774>
    3e5c:	aa 15 60 01 	or  %l5, 1, %l5
    3e60:	d4 06 80 00 	ld  [ %i2 ], %o2
    3e64:	90 10 00 1d 	mov  %i5, %o0
    3e68:	ea 23 a0 5c 	st  %l5, [ %sp + 0x5c ]
    3e6c:	92 10 20 00 	clr  %o1
    3e70:	96 10 20 10 	mov  0x10, %o3
    3e74:	98 10 00 1c 	mov  %i4, %o4
    3e78:	7f ff fd c8 	call  3598 <number>
    3e7c:	9a 10 00 16 	mov  %l6, %o5
    3e80:	b4 06 a0 04 	add  %i2, 4, %i2
    3e84:	ba 10 00 08 	mov  %o0, %i5
    3e88:	10 bf fe 88 	b  38a8 <ee_vsprintf+0x3c>
    3e8c:	c4 0e 60 01 	ldub  [ %i1 + 1 ], %g2
    3e90:	92 10 00 1a 	mov  %i2, %o1
    3e94:	90 07 bf 50 	add  %fp, -176, %o0
    3e98:	40 00 03 5d 	call  4c0c <__GI_memcpy>
    3e9c:	94 10 20 08 	mov  8, %o2
    3ea0:	b4 06 a0 08 	add  %i2, 8, %i2
    3ea4:	80 8d 60 10 	btst  0x10, %l5
    3ea8:	02 80 00 03 	be  3eb4 <ee_vsprintf+0x648>
    3eac:	d1 1f bf 50 	ldd  [ %fp + -176 ], %f8
    3eb0:	aa 0d 7f fe 	and  %l5, -2, %l5
    3eb4:	aa 15 60 02 	or  %l5, 2, %l5
    3eb8:	d5 1c 61 a0 	ldd  [ %l1 + 0x1a0 ], %f10
    3ebc:	82 0d 60 01 	and  %l5, 1, %g1
    3ec0:	81 aa 0a ca 	fcmped  %f8, %f10
    3ec4:	80 a0 00 01 	cmp  %g0, %g1
    3ec8:	ae 40 3f ff 	addx  %g0, -1, %l7
    3ecc:	ae 0d e0 f0 	and  %l7, 0xf0, %l7
    3ed0:	01 00 00 00 	nop 
    3ed4:	09 80 00 9b 	fbl  4140 <ee_vsprintf+0x8d4>
    3ed8:	ae 05 e0 30 	add  %l7, 0x30, %l7
    3edc:	80 8d 60 04 	btst  4, %l5
    3ee0:	32 80 00 c7 	bne,a   41fc <ee_vsprintf+0x990>
    3ee4:	b8 07 3f ff 	add  %i4, -1, %i4
    3ee8:	80 8d 60 08 	btst  8, %l5
    3eec:	02 80 00 98 	be  414c <ee_vsprintf+0x8e0>
    3ef0:	82 10 20 00 	clr  %g1
    3ef4:	b8 07 3f ff 	add  %i4, -1, %i4
    3ef8:	10 80 00 95 	b  414c <ee_vsprintf+0x8e0>
    3efc:	82 10 20 20 	mov  0x20, %g1
    3f00:	aa 15 60 02 	or  %l5, 2, %l5
    3f04:	10 bf ff 70 	b  3cc4 <ee_vsprintf+0x458>
    3f08:	96 10 20 0a 	mov  0xa, %o3
    3f0c:	10 bf ff 6e 	b  3cc4 <ee_vsprintf+0x458>
    3f10:	96 10 20 08 	mov  8, %o3
    3f14:	f8 06 80 00 	ld  [ %i2 ], %i4
    3f18:	84 06 60 02 	add  %i1, 2, %g2
    3f1c:	b4 06 a0 04 	add  %i2, 4, %i2
    3f20:	80 a7 20 00 	cmp  %i4, 0
    3f24:	16 bf fe 83 	bge  3930 <ee_vsprintf+0xc4>
    3f28:	c2 0e 60 02 	ldub  [ %i1 + 2 ], %g1
    3f2c:	b8 20 00 1c 	neg  %i4
    3f30:	10 bf fe 80 	b  3930 <ee_vsprintf+0xc4>
    3f34:	aa 15 60 10 	or  %l5, 0x10, %l5
    3f38:	24 bf ff 24 	ble,a   3bc8 <ee_vsprintf+0x35c>
    3f3c:	88 14 23 18 	or  %l0, 0x318, %g4
    3f40:	89 38 60 1f 	sra  %g1, 0x1f, %g4
    3f44:	81 81 20 00 	mov  %g4, %y
    3f48:	01 00 00 00 	nop 
    3f4c:	01 00 00 00 	nop 
    3f50:	01 00 00 00 	nop 
    3f54:	9a 78 60 0a 	sdiv  %g1, 0xa, %o5
    3f58:	92 07 80 03 	add  %fp, %g3, %o1
    3f5c:	94 03 40 0d 	add  %o5, %o5, %o2
    3f60:	88 14 23 18 	or  %l0, 0x318, %g4
    3f64:	86 00 e0 01 	inc  %g3
    3f68:	d0 09 00 0d 	ldub  [ %g4 + %o5 ], %o0
    3f6c:	9b 2b 60 03 	sll  %o5, 3, %o5
    3f70:	d0 2a 7f b0 	stb  %o0, [ %o1 + -80 ]
    3f74:	9a 02 80 0d 	add  %o2, %o5, %o5
    3f78:	10 bf ff 14 	b  3bc8 <ee_vsprintf+0x35c>
    3f7c:	82 20 40 0d 	sub  %g1, %o5, %g1
    3f80:	92 10 20 00 	clr  %o1
    3f84:	10 bf ff 5e 	b  3cfc <ee_vsprintf+0x490>
    3f88:	b4 06 a0 04 	add  %i2, 4, %i2
    3f8c:	92 10 20 00 	clr  %o1
    3f90:	10 bf ff 5b 	b  3cfc <ee_vsprintf+0x490>
    3f94:	b4 06 a0 04 	add  %i2, 4, %i2
    3f98:	c2 06 80 00 	ld  [ %i2 ], %g1
    3f9c:	c2 2f 40 00 	stb  %g1, [ %i5 ]
    3fa0:	86 07 60 01 	add  %i5, 1, %g3
    3fa4:	b4 06 a0 04 	add  %i2, 4, %i2
    3fa8:	ba 07 40 1c 	add  %i5, %i4, %i5
    3fac:	82 10 00 03 	mov  %g3, %g1
    3fb0:	80 a7 20 01 	cmp  %i4, 1
    3fb4:	04 80 01 53 	ble  4500 <ee_vsprintf+0xc94>
    3fb8:	84 10 20 20 	mov  0x20, %g2
    3fbc:	c4 28 40 00 	stb  %g2, [ %g1 ]
    3fc0:	82 00 60 01 	inc  %g1
    3fc4:	80 a0 40 1d 	cmp  %g1, %i5
    3fc8:	32 bf ff fe 	bne,a   3fc0 <ee_vsprintf+0x754>
    3fcc:	c4 28 40 00 	stb  %g2, [ %g1 ]
    3fd0:	ba 07 3f ff 	add  %i4, -1, %i5
    3fd4:	c4 0e 60 01 	ldub  [ %i1 + 1 ], %g2
    3fd8:	10 bf fe 34 	b  38a8 <ee_vsprintf+0x3c>
    3fdc:	ba 00 c0 1d 	add  %g3, %i5, %i5
    3fe0:	10 bf ff a0 	b  3e60 <ee_vsprintf+0x5f4>
    3fe4:	b8 10 20 08 	mov  8, %i4
    3fe8:	d6 06 80 00 	ld  [ %i2 ], %o3
    3fec:	80 8d 60 40 	btst  0x40, %l5
    3ff0:	02 80 00 52 	be  4138 <ee_vsprintf+0x8cc>
    3ff4:	b4 06 a0 04 	add  %i2, 4, %i2
    3ff8:	1f 00 00 41 	sethi  %hi(0x10400), %o7
    3ffc:	9e 13 e3 40 	or  %o7, 0x340, %o7	! 10740 <__clz_tab+0x6d0>
    4000:	82 10 20 00 	clr  %g1
    4004:	c8 0a c0 01 	ldub  [ %o3 + %g1 ], %g4
    4008:	98 09 20 ff 	and  %g4, 0xff, %o4
    400c:	88 09 20 0f 	and  %g4, 0xf, %g4
    4010:	84 10 20 00 	clr  %g2
    4014:	da 0b c0 04 	ldub  [ %o7 + %g4 ], %o5
    4018:	86 07 80 02 	add  %fp, %g2, %g3
    401c:	99 33 20 04 	srl  %o4, 4, %o4
    4020:	da 28 ff b1 	stb  %o5, [ %g3 + -79 ]
    4024:	c8 0b c0 0c 	ldub  [ %o7 + %o4 ], %g4
    4028:	c8 28 ff b0 	stb  %g4, [ %g3 + -80 ]
    402c:	82 00 60 01 	inc  %g1
    4030:	94 10 20 3a 	mov  0x3a, %o2
    4034:	80 a0 60 06 	cmp  %g1, 6
    4038:	02 80 00 12 	be  4080 <ee_vsprintf+0x814>
    403c:	86 00 a0 02 	add  %g2, 2, %g3
    4040:	86 07 80 03 	add  %fp, %g3, %g3
    4044:	d4 28 ff b0 	stb  %o2, [ %g3 + -80 ]
    4048:	c8 0a c0 01 	ldub  [ %o3 + %g1 ], %g4
    404c:	98 09 20 ff 	and  %g4, 0xff, %o4
    4050:	88 09 20 0f 	and  %g4, 0xf, %g4
    4054:	84 00 a0 03 	add  %g2, 3, %g2
    4058:	da 0b c0 04 	ldub  [ %o7 + %g4 ], %o5
    405c:	86 07 80 02 	add  %fp, %g2, %g3
    4060:	99 33 20 04 	srl  %o4, 4, %o4
    4064:	da 28 ff b1 	stb  %o5, [ %g3 + -79 ]
    4068:	c8 0b c0 0c 	ldub  [ %o7 + %o4 ], %g4
    406c:	c8 28 ff b0 	stb  %g4, [ %g3 + -80 ]
    4070:	82 00 60 01 	inc  %g1
    4074:	80 a0 60 06 	cmp  %g1, 6
    4078:	12 bf ff f2 	bne  4040 <ee_vsprintf+0x7d4>
    407c:	86 00 a0 02 	add  %g2, 2, %g3
    4080:	80 8d 60 10 	btst  0x10, %l5
    4084:	32 80 00 0f 	bne,a   40c0 <ee_vsprintf+0x854>
    4088:	82 10 20 00 	clr  %g1
    408c:	80 a7 00 03 	cmp  %i4, %g3
    4090:	04 80 01 17 	ble  44ec <ee_vsprintf+0xc80>
    4094:	82 07 3f ff 	add  %i4, -1, %g1
    4098:	82 27 00 03 	sub  %i4, %g3, %g1
    409c:	84 10 20 20 	mov  0x20, %g2
    40a0:	82 07 40 01 	add  %i5, %g1, %g1
    40a4:	c4 2f 40 00 	stb  %g2, [ %i5 ]
    40a8:	ba 07 60 01 	inc  %i5
    40ac:	80 a7 40 01 	cmp  %i5, %g1
    40b0:	32 bf ff fe 	bne,a   40a8 <ee_vsprintf+0x83c>
    40b4:	c4 2f 40 00 	stb  %g2, [ %i5 ]
    40b8:	b8 00 ff ff 	add  %g3, -1, %i4
    40bc:	82 10 20 00 	clr  %g1
    40c0:	c4 0c 80 01 	ldub  [ %l2 + %g1 ], %g2
    40c4:	c4 2f 40 01 	stb  %g2, [ %i5 + %g1 ]
    40c8:	82 00 60 01 	inc  %g1
    40cc:	80 a0 40 03 	cmp  %g1, %g3
    40d0:	32 bf ff fd 	bne,a   40c4 <ee_vsprintf+0x858>
    40d4:	c4 0c 80 01 	ldub  [ %l2 + %g1 ], %g2
    40d8:	80 a7 00 01 	cmp  %i4, %g1
    40dc:	04 bf fe e3 	ble  3c68 <ee_vsprintf+0x3fc>
    40e0:	ba 07 40 01 	add  %i5, %g1, %i5
    40e4:	82 27 00 01 	sub  %i4, %g1, %g1
    40e8:	84 10 20 20 	mov  0x20, %g2
    40ec:	82 07 40 01 	add  %i5, %g1, %g1
    40f0:	c4 2f 40 00 	stb  %g2, [ %i5 ]
    40f4:	ba 07 60 01 	inc  %i5
    40f8:	80 a7 40 01 	cmp  %i5, %g1
    40fc:	32 bf ff fe 	bne,a   40f4 <ee_vsprintf+0x888>
    4100:	c4 2f 40 00 	stb  %g2, [ %i5 ]
    4104:	10 bf fd e9 	b  38a8 <ee_vsprintf+0x3c>
    4108:	c4 0e 60 01 	ldub  [ %i1 + 1 ], %g2
    410c:	ec 06 80 00 	ld  [ %i2 ], %l6
    4110:	84 06 60 02 	add  %i1, 2, %g2
    4114:	b4 06 a0 04 	add  %i2, 4, %i2
    4118:	80 a5 a0 00 	cmp  %l6, 0
    411c:	16 bf fe 6e 	bge  3ad4 <ee_vsprintf+0x268>
    4120:	c2 0e 60 02 	ldub  [ %i1 + 2 ], %g1
    4124:	ac 10 20 00 	clr  %l6
    4128:	10 bf fe 08 	b  3948 <ee_vsprintf+0xdc>
    412c:	b2 10 00 02 	mov  %g2, %i1
    4130:	10 bf fe 2f 	b  39ec <ee_vsprintf+0x180>
    4134:	b0 10 20 00 	clr  %i0
    4138:	10 bf ff b2 	b  4000 <ee_vsprintf+0x794>
    413c:	9e 14 23 18 	or  %l0, 0x318, %o7
    4140:	91 a0 00 a8 	fnegs  %f8, %f8
    4144:	b8 07 3f ff 	add  %i4, -1, %i4
    4148:	82 10 20 2d 	mov  0x2d, %g1
    414c:	80 a5 bf ff 	cmp  %l6, -1
    4150:	22 80 00 02 	be,a   4158 <ee_vsprintf+0x8ec>
    4154:	ac 10 20 06 	mov  6, %l6
    4158:	d1 3f bf 38 	std  %f8, [ %fp + -200 ]
    415c:	c2 27 bf 44 	st  %g1, [ %fp + -188 ]
    4160:	d0 1f bf 38 	ldd  [ %fp + -200 ], %o0
    4164:	94 10 00 16 	mov  %l6, %o2
    4168:	96 07 bf 48 	add  %fp, -184, %o3
    416c:	98 07 bf 4c 	add  %fp, -180, %o4
    4170:	7f ff f7 95 	call  1fc4 <fcvtbuf>
    4174:	9a 10 00 12 	mov  %l2, %o5
    4178:	c6 07 bf 4c 	ld  [ %fp + -180 ], %g3
    417c:	84 07 bf 60 	add  %fp, -160, %g2
    4180:	80 a0 e0 00 	cmp  %g3, 0
    4184:	02 80 00 05 	be  4198 <ee_vsprintf+0x92c>
    4188:	c2 07 bf 44 	ld  [ %fp + -188 ], %g1
    418c:	86 10 20 2d 	mov  0x2d, %g3
    4190:	84 07 bf 61 	add  %fp, -159, %g2
    4194:	c6 2f bf 60 	stb  %g3, [ %fp + -160 ]
    4198:	c6 4a 00 00 	ldsb  [ %o0 ], %g3
    419c:	80 a0 e0 00 	cmp  %g3, 0
    41a0:	02 80 00 9f 	be  441c <ee_vsprintf+0xbb0>
    41a4:	c8 0a 00 00 	ldub  [ %o0 ], %g4
    41a8:	da 07 bf 48 	ld  [ %fp + -184 ], %o5
    41ac:	86 10 00 08 	mov  %o0, %g3
    41b0:	80 a3 60 00 	cmp  %o5, 0
    41b4:	14 80 00 0b 	bg  41e0 <ee_vsprintf+0x974>
    41b8:	98 10 20 2e 	mov  0x2e, %o4
    41bc:	10 80 00 12 	b  4204 <ee_vsprintf+0x998>
    41c0:	86 10 20 30 	mov  0x30, %g3
    41c4:	c8 28 80 00 	stb  %g4, [ %g2 ]
    41c8:	86 00 e0 01 	inc  %g3
    41cc:	84 00 a0 01 	inc  %g2
    41d0:	de 48 c0 00 	ldsb  [ %g3 ], %o7
    41d4:	80 a3 e0 00 	cmp  %o7, 0
    41d8:	02 80 00 1f 	be  4254 <ee_vsprintf+0x9e8>
    41dc:	c8 08 c0 00 	ldub  [ %g3 ], %g4
    41e0:	9e 20 c0 08 	sub  %g3, %o0, %o7
    41e4:	80 a3 40 0f 	cmp  %o5, %o7
    41e8:	32 bf ff f8 	bne,a   41c8 <ee_vsprintf+0x95c>
    41ec:	c8 28 80 00 	stb  %g4, [ %g2 ]
    41f0:	d8 28 80 00 	stb  %o4, [ %g2 ]
    41f4:	10 bf ff f4 	b  41c4 <ee_vsprintf+0x958>
    41f8:	84 00 a0 01 	inc  %g2
    41fc:	10 bf ff d4 	b  414c <ee_vsprintf+0x8e0>
    4200:	82 10 20 2b 	mov  0x2b, %g1
    4204:	c6 28 80 00 	stb  %g3, [ %g2 ]
    4208:	86 10 20 2e 	mov  0x2e, %g3
    420c:	c6 28 a0 01 	stb  %g3, [ %g2 + 1 ]
    4210:	9e a0 00 0d 	subcc  %g0, %o5, %o7
    4214:	02 80 00 09 	be  4238 <ee_vsprintf+0x9cc>
    4218:	84 00 a0 02 	add  %g2, 2, %g2
    421c:	9e 00 80 0f 	add  %g2, %o7, %o7
    4220:	86 10 20 30 	mov  0x30, %g3
    4224:	c6 28 80 00 	stb  %g3, [ %g2 ]
    4228:	84 00 a0 01 	inc  %g2
    422c:	80 a0 80 0f 	cmp  %g2, %o7
    4230:	32 bf ff fe 	bne,a   4228 <ee_vsprintf+0x9bc>
    4234:	c6 28 80 00 	stb  %g3, [ %g2 ]
    4238:	c8 28 80 00 	stb  %g4, [ %g2 ]
    423c:	90 02 20 01 	inc  %o0
    4240:	84 00 a0 01 	inc  %g2
    4244:	c6 4a 00 00 	ldsb  [ %o0 ], %g3
    4248:	80 a0 e0 00 	cmp  %g3, 0
    424c:	12 bf ff fb 	bne  4238 <ee_vsprintf+0x9cc>
    4250:	c8 0a 00 00 	ldub  [ %o0 ], %g4
    4254:	80 8d 60 20 	btst  0x20, %l5
    4258:	02 80 00 05 	be  426c <ee_vsprintf+0xa00>
    425c:	c0 28 80 00 	clrb  [ %g2 ]
    4260:	80 a5 a0 00 	cmp  %l6, 0
    4264:	02 80 00 4c 	be  4394 <ee_vsprintf+0xb28>
    4268:	c6 4f bf 60 	ldsb  [ %fp + -160 ], %g3
    426c:	c4 0f bf 60 	ldub  [ %fp + -160 ], %g2
    4270:	87 28 a0 18 	sll  %g2, 0x18, %g3
    4274:	80 a0 e0 00 	cmp  %g3, 0
    4278:	22 80 00 0d 	be,a   42ac <ee_vsprintf+0xa40>
    427c:	88 10 20 00 	clr  %g4
    4280:	86 07 bf 60 	add  %fp, -160, %g3
    4284:	10 80 00 04 	b  4294 <ee_vsprintf+0xa28>
    4288:	88 10 00 03 	mov  %g3, %g4
    428c:	22 80 00 08 	be,a   42ac <ee_vsprintf+0xa40>
    4290:	88 25 00 03 	sub  %l4, %g3, %g4
    4294:	88 01 20 01 	inc  %g4
    4298:	de 49 00 00 	ldsb  [ %g4 ], %o7
    429c:	80 a3 e0 00 	cmp  %o7, 0
    42a0:	12 bf ff fb 	bne  428c <ee_vsprintf+0xa20>
    42a4:	80 a1 00 14 	cmp  %g4, %l4
    42a8:	88 21 00 03 	sub  %g4, %g3, %g4
    42ac:	80 8d 60 11 	btst  0x11, %l5
    42b0:	12 80 00 0d 	bne  42e4 <ee_vsprintf+0xa78>
    42b4:	b8 27 00 04 	sub  %i4, %g4, %i4
    42b8:	80 a7 20 00 	cmp  %i4, 0
    42bc:	04 80 00 88 	ble  44dc <ee_vsprintf+0xc70>
    42c0:	86 07 3f ff 	add  %i4, -1, %g3
    42c4:	b8 07 40 1c 	add  %i5, %i4, %i4
    42c8:	86 10 20 20 	mov  0x20, %g3
    42cc:	c6 2f 40 00 	stb  %g3, [ %i5 ]
    42d0:	ba 07 60 01 	inc  %i5
    42d4:	80 a7 40 1c 	cmp  %i5, %i4
    42d8:	32 bf ff fe 	bne,a   42d0 <ee_vsprintf+0xa64>
    42dc:	c6 2f 40 00 	stb  %g3, [ %i5 ]
    42e0:	b8 10 3f ff 	mov  -1, %i4
    42e4:	80 88 60 ff 	btst  0xff, %g1
    42e8:	02 80 00 04 	be  42f8 <ee_vsprintf+0xa8c>
    42ec:	80 8d 60 10 	btst  0x10, %l5
    42f0:	c2 2f 40 00 	stb  %g1, [ %i5 ]
    42f4:	ba 07 60 01 	inc  %i5
    42f8:	12 80 00 0d 	bne  432c <ee_vsprintf+0xac0>
    42fc:	80 a1 20 00 	cmp  %g4, 0
    4300:	80 a7 20 00 	cmp  %i4, 0
    4304:	04 80 00 74 	ble  44d4 <ee_vsprintf+0xc68>
    4308:	82 07 3f ff 	add  %i4, -1, %g1
    430c:	b8 07 40 1c 	add  %i5, %i4, %i4
    4310:	ee 2f 40 00 	stb  %l7, [ %i5 ]
    4314:	ba 07 60 01 	inc  %i5
    4318:	80 a7 40 1c 	cmp  %i5, %i4
    431c:	32 bf ff fe 	bne,a   4314 <ee_vsprintf+0xaa8>
    4320:	ee 2f 40 00 	stb  %l7, [ %i5 ]
    4324:	b8 10 3f ff 	mov  -1, %i4
    4328:	80 a1 20 00 	cmp  %g4, 0
    432c:	04 80 00 0b 	ble  4358 <ee_vsprintf+0xaec>
    4330:	82 10 20 00 	clr  %g1
    4334:	10 80 00 04 	b  4344 <ee_vsprintf+0xad8>
    4338:	c4 2f 40 01 	stb  %g2, [ %i5 + %g1 ]
    433c:	c4 08 c0 01 	ldub  [ %g3 + %g1 ], %g2
    4340:	c4 2f 40 01 	stb  %g2, [ %i5 + %g1 ]
    4344:	82 00 60 01 	inc  %g1
    4348:	80 a0 40 04 	cmp  %g1, %g4
    434c:	12 bf ff fc 	bne  433c <ee_vsprintf+0xad0>
    4350:	86 07 bf 60 	add  %fp, -160, %g3
    4354:	ba 07 40 01 	add  %i5, %g1, %i5
    4358:	80 a7 20 00 	cmp  %i4, 0
    435c:	04 bf fe 43 	ble  3c68 <ee_vsprintf+0x3fc>
    4360:	82 10 20 20 	mov  0x20, %g1
    4364:	84 07 40 1c 	add  %i5, %i4, %g2
    4368:	c2 2f 40 00 	stb  %g1, [ %i5 ]
    436c:	ba 07 60 01 	inc  %i5
    4370:	80 a7 40 02 	cmp  %i5, %g2
    4374:	32 bf ff fe 	bne,a   436c <ee_vsprintf+0xb00>
    4378:	c2 2f 40 00 	stb  %g1, [ %i5 ]
    437c:	10 bf fd 4b 	b  38a8 <ee_vsprintf+0x3c>
    4380:	c4 0e 60 01 	ldub  [ %i1 + 1 ], %g2
    4384:	80 8d 60 20 	btst  0x20, %l5
    4388:	02 bf ff b9 	be  426c <ee_vsprintf+0xa00>
    438c:	c0 28 a0 01 	clrb  [ %g2 + 1 ]
    4390:	c6 4f bf 60 	ldsb  [ %fp + -160 ], %g3
    4394:	80 a0 e0 00 	cmp  %g3, 0
    4398:	02 80 00 57 	be  44f4 <ee_vsprintf+0xc88>
    439c:	c4 0f bf 60 	ldub  [ %fp + -160 ], %g2
    43a0:	80 a0 e0 2e 	cmp  %g3, 0x2e
    43a4:	02 bf ff b8 	be  4284 <ee_vsprintf+0xa18>
    43a8:	86 07 bf 60 	add  %fp, -160, %g3
    43ac:	86 08 bf df 	and  %g2, -33, %g3
    43b0:	87 28 e0 18 	sll  %g3, 0x18, %g3
    43b4:	87 38 e0 18 	sra  %g3, 0x18, %g3
    43b8:	80 a0 e0 45 	cmp  %g3, 0x45
    43bc:	02 80 00 2f 	be  4478 <ee_vsprintf+0xc0c>
    43c0:	86 07 bf 60 	add  %fp, -160, %g3
    43c4:	10 80 00 0a 	b  43ec <ee_vsprintf+0xb80>
    43c8:	88 10 00 03 	mov  %g3, %g4
    43cc:	80 a3 e0 2e 	cmp  %o7, 0x2e
    43d0:	02 bf ff ad 	be  4284 <ee_vsprintf+0xa18>
    43d4:	9e 0b 7f df 	and  %o5, -33, %o7
    43d8:	9f 2b e0 18 	sll  %o7, 0x18, %o7
    43dc:	9f 3b e0 18 	sra  %o7, 0x18, %o7
    43e0:	80 a3 e0 45 	cmp  %o7, 0x45
    43e4:	02 80 00 27 	be  4480 <ee_vsprintf+0xc14>
    43e8:	9e 01 21 00 	add  %g4, 0x100, %o7
    43ec:	88 01 20 01 	inc  %g4
    43f0:	de 49 00 00 	ldsb  [ %g4 ], %o7
    43f4:	80 a3 e0 00 	cmp  %o7, 0
    43f8:	12 bf ff f5 	bne  43cc <ee_vsprintf+0xb60>
    43fc:	da 09 00 00 	ldub  [ %g4 ], %o5
    4400:	c0 29 20 01 	clrb  [ %g4 + 1 ]
    4404:	84 10 20 2e 	mov  0x2e, %g2
    4408:	10 bf ff 99 	b  426c <ee_vsprintf+0xa00>
    440c:	c4 29 00 00 	stb  %g2, [ %g4 ]
    4410:	09 00 00 41 	sethi  %hi(0x10400), %g4
    4414:	10 bf fe 5b 	b  3d80 <ee_vsprintf+0x514>
    4418:	88 11 23 68 	or  %g4, 0x368, %g4	! 10768 <__clz_tab+0x6f8>
    441c:	86 10 20 30 	mov  0x30, %g3
    4420:	80 a5 a0 00 	cmp  %l6, 0
    4424:	02 bf ff d8 	be  4384 <ee_vsprintf+0xb18>
    4428:	c6 28 80 00 	stb  %g3, [ %g2 ]
    442c:	88 10 20 2e 	mov  0x2e, %g4
    4430:	86 00 a0 02 	add  %g2, 2, %g3
    4434:	c8 28 a0 01 	stb  %g4, [ %g2 + 1 ]
    4438:	84 10 20 00 	clr  %g2
    443c:	88 10 20 30 	mov  0x30, %g4
    4440:	c8 28 c0 02 	stb  %g4, [ %g3 + %g2 ]
    4444:	84 00 a0 01 	inc  %g2
    4448:	80 a5 80 02 	cmp  %l6, %g2
    444c:	34 bf ff fe 	bg,a   4444 <ee_vsprintf+0xbd8>
    4450:	c8 28 c0 02 	stb  %g4, [ %g3 + %g2 ]
    4454:	80 a5 a0 00 	cmp  %l6, 0
    4458:	24 80 00 02 	ble,a   4460 <ee_vsprintf+0xbf4>
    445c:	ac 10 20 01 	mov  1, %l6
    4460:	10 bf ff 83 	b  426c <ee_vsprintf+0xa00>
    4464:	c0 28 c0 16 	clrb  [ %g3 + %l6 ]
    4468:	10 bf fe 56 	b  3dc0 <ee_vsprintf+0x554>
    446c:	86 10 20 00 	clr  %g3
    4470:	10 bf fd ec 	b  3c20 <ee_vsprintf+0x3b4>
    4474:	b8 10 00 01 	mov  %g1, %i4
    4478:	88 07 bf 60 	add  %fp, -160, %g4
    447c:	9e 01 21 00 	add  %g4, 0x100, %o7
    4480:	10 80 00 04 	b  4490 <ee_vsprintf+0xc24>
    4484:	84 10 00 04 	mov  %g4, %g2
    4488:	22 80 00 08 	be,a   44a8 <ee_vsprintf+0xc3c>
    448c:	84 20 80 04 	sub  %g2, %g4, %g2
    4490:	84 00 a0 01 	inc  %g2
    4494:	c6 48 80 00 	ldsb  [ %g2 ], %g3
    4498:	80 a0 e0 00 	cmp  %g3, 0
    449c:	12 bf ff fb 	bne  4488 <ee_vsprintf+0xc1c>
    44a0:	80 a0 80 0f 	cmp  %g2, %o7
    44a4:	84 20 80 04 	sub  %g2, %g4, %g2
    44a8:	80 a0 a0 00 	cmp  %g2, 0
    44ac:	24 bf ff d7 	ble,a   4408 <ee_vsprintf+0xb9c>
    44b0:	84 10 20 2e 	mov  0x2e, %g2
    44b4:	de 09 00 02 	ldub  [ %g4 + %g2 ], %o7
    44b8:	86 01 00 02 	add  %g4, %g2, %g3
    44bc:	84 80 bf ff 	addcc  %g2, -1, %g2
    44c0:	12 bf ff fd 	bne  44b4 <ee_vsprintf+0xc48>
    44c4:	de 28 e0 01 	stb  %o7, [ %g3 + 1 ]
    44c8:	84 10 20 2e 	mov  0x2e, %g2
    44cc:	10 bf ff 68 	b  426c <ee_vsprintf+0xa00>
    44d0:	c4 29 00 00 	stb  %g2, [ %g4 ]
    44d4:	10 bf ff 95 	b  4328 <ee_vsprintf+0xabc>
    44d8:	b8 10 00 01 	mov  %g1, %i4
    44dc:	10 bf ff 82 	b  42e4 <ee_vsprintf+0xa78>
    44e0:	b8 10 00 03 	mov  %g3, %i4
    44e4:	10 bf fe 46 	b  3dfc <ee_vsprintf+0x590>
    44e8:	b8 10 00 01 	mov  %g1, %i4
    44ec:	10 bf fe f4 	b  40bc <ee_vsprintf+0x850>
    44f0:	b8 10 00 01 	mov  %g1, %i4
    44f4:	88 07 bf 60 	add  %fp, -160, %g4
    44f8:	10 bf ff c3 	b  4404 <ee_vsprintf+0xb98>
    44fc:	c0 29 20 01 	clrb  [ %g4 + 1 ]
    4500:	ba 10 00 03 	mov  %g3, %i5
    4504:	10 bf fc e9 	b  38a8 <ee_vsprintf+0x3c>
    4508:	c4 0e 60 01 	ldub  [ %i1 + 1 ], %g2
    450c:	b2 10 00 03 	mov  %g3, %i1
    4510:	88 10 20 00 	clr  %g4
    4514:	10 bf fd 1e 	b  398c <ee_vsprintf+0x120>
    4518:	86 10 20 6c 	mov  0x6c, %g3

0000451c <uart_send_char>:
    451c:	9d e3 bf a0 	save  %sp, -96, %sp
    4520:	7f ff f4 02 	call  1528 <__ajit_serial_putchar_via_bypass__>
    4524:	90 10 00 18 	mov  %i0, %o0
    4528:	80 a2 20 00 	cmp  %o0, 0
    452c:	02 bf ff fd 	be  4520 <uart_send_char+0x4>
    4530:	05 3f ff cc 	sethi  %hi(0xffff3000), %g2
    4534:	84 10 a2 00 	or  %g2, 0x200, %g2	! ffff3200 <allocatedLocks+0xfffe2010>
    4538:	c2 80 84 00 	lda  [ %g2 ] #ASI_SCRATCHPAD, %g1
    453c:	82 08 60 09 	and  %g1, 9, %g1
    4540:	80 a0 60 09 	cmp  %g1, 9
    4544:	02 bf ff fd 	be  4538 <uart_send_char+0x1c>
    4548:	01 00 00 00 	nop 
    454c:	81 c7 e0 08 	ret 
    4550:	81 e8 00 00 	restore 

00004554 <ee_printf>:
    4554:	9d e3 bb 98 	save  %sp, -1128, %sp
    4558:	94 07 a0 48 	add  %fp, 0x48, %o2
    455c:	fa 27 a0 58 	st  %i5, [ %fp + 0x58 ]
    4560:	92 10 00 18 	mov  %i0, %o1
    4564:	f2 27 a0 48 	st  %i1, [ %fp + 0x48 ]
    4568:	f4 27 a0 4c 	st  %i2, [ %fp + 0x4c ]
    456c:	f6 27 a0 50 	st  %i3, [ %fp + 0x50 ]
    4570:	f8 27 a0 54 	st  %i4, [ %fp + 0x54 ]
    4574:	d4 27 bb fc 	st  %o2, [ %fp + -1028 ]
    4578:	ba 07 bc 00 	add  %fp, -1024, %i5
    457c:	7f ff fc bc 	call  386c <ee_vsprintf>
    4580:	90 10 00 1d 	mov  %i5, %o0
    4584:	d0 0f bc 00 	ldub  [ %fp + -1024 ], %o0
    4588:	91 2a 20 18 	sll  %o0, 0x18, %o0
    458c:	80 a2 20 00 	cmp  %o0, 0
    4590:	02 80 00 0a 	be  45b8 <ee_printf+0x64>
    4594:	b0 10 20 00 	clr  %i0
    4598:	7f ff ff e1 	call  451c <uart_send_char>
    459c:	91 3a 20 18 	sra  %o0, 0x18, %o0
    45a0:	b0 06 20 01 	inc  %i0
    45a4:	d0 0f 40 18 	ldub  [ %i5 + %i0 ], %o0
    45a8:	91 2a 20 18 	sll  %o0, 0x18, %o0
    45ac:	80 a2 20 00 	cmp  %o0, 0
    45b0:	12 bf ff fa 	bne  4598 <ee_printf+0x44>
    45b4:	01 00 00 00 	nop 
    45b8:	81 c7 e0 08 	ret 
    45bc:	81 e8 00 00 	restore 

000045c0 <__cortos_enable_serial>:
    45c0:	90 10 20 03 	mov  3, %o0
    45c4:	82 13 c0 00 	mov  %o7, %g1
    45c8:	7f ff f2 7d 	call  fbc <__ajit_write_serial_control_register_via_bypass__>
    45cc:	9e 10 40 00 	mov  %g1, %o7

000045d0 <__cortos_enable_serial_interrupt>:
    45d0:	90 10 20 07 	mov  7, %o0
    45d4:	82 13 c0 00 	mov  %o7, %g1
    45d8:	7f ff f2 79 	call  fbc <__ajit_write_serial_control_register_via_bypass__>
    45dc:	9e 10 40 00 	mov  %g1, %o7
    45e0:	80 8a 60 01 	btst  1, %o1
    45e4:	02 80 00 08 	be  4604 <__cortos_enable_serial_interrupt+0x34>
    45e8:	80 8a 60 02 	btst  2, %o1
    45ec:	c4 0a 7f ff 	ldub  [ %o1 + -1 ], %g2
    45f0:	92 22 60 01 	dec  %o1
    45f4:	c4 2a 3f ff 	stb  %g2, [ %o0 + -1 ]
    45f8:	94 22 a0 01 	dec  %o2
    45fc:	02 80 00 1a 	be  4664 <__GI_memmove+0x3c>
    4600:	90 22 20 01 	dec  %o0
    4604:	c4 12 7f fe 	lduh  [ %o1 + -2 ], %g2
    4608:	92 22 60 02 	sub  %o1, 2, %o1
    460c:	c4 32 3f fe 	sth  %g2, [ %o0 + -2 ]
    4610:	94 22 a0 02 	sub  %o2, 2, %o2
    4614:	10 80 00 14 	b  4664 <__GI_memmove+0x3c>
    4618:	90 22 20 02 	sub  %o0, 2, %o0

0000461c <bcopy>:
    461c:	96 10 00 08 	mov  %o0, %o3
    4620:	90 10 00 09 	mov  %o1, %o0
    4624:	92 10 00 0b 	mov  %o3, %o1

00004628 <__GI_memmove>:
    4628:	80 a2 00 09 	cmp  %o0, %o1
    462c:	d0 23 a0 40 	st  %o0, [ %sp + 0x40 ]
    4630:	08 80 01 79 	bleu  4c14 <__GI_memcpy+0x8>
    4634:	98 22 00 09 	sub  %o0, %o1, %o4
    4638:	96 02 40 0a 	add  %o1, %o2, %o3
    463c:	80 a2 c0 08 	cmp  %o3, %o0
    4640:	08 80 01 76 	bleu  4c18 <__GI_memcpy+0xc>
    4644:	9a 8b 20 03 	andcc  %o4, 3, %o5
    4648:	92 02 40 0a 	add  %o1, %o2, %o1
    464c:	90 02 00 0a 	add  %o0, %o2, %o0
    4650:	12 80 00 f9 	bne  4a34 <__GI_memmove+0x40c>
    4654:	80 a2 a0 0f 	cmp  %o2, 0xf
    4658:	08 80 00 eb 	bleu  4a04 <__GI_memmove+0x3dc>
    465c:	80 8a 60 03 	btst  3, %o1
    4660:	12 bf ff e0 	bne  45e0 <__cortos_enable_serial_interrupt+0x10>
    4664:	80 8a 60 04 	btst  4, %o1
    4668:	02 80 00 07 	be  4684 <__GI_memmove+0x5c>
    466c:	82 10 00 0a 	mov  %o2, %g1
    4670:	d8 02 7f fc 	ld  [ %o1 + -4 ], %o4
    4674:	82 20 60 04 	sub  %g1, 4, %g1
    4678:	d8 22 3f fc 	st  %o4, [ %o0 + -4 ]
    467c:	92 22 60 04 	sub  %o1, 4, %o1
    4680:	90 22 20 04 	sub  %o0, 4, %o0
    4684:	8c 88 7f 80 	andcc  %g1, -128, %g6
    4688:	02 80 00 37 	be  4764 <__GI_memmove+0x13c>
    468c:	80 8a 20 04 	btst  4, %o0
    4690:	02 80 00 84 	be  48a0 <__GI_memmove+0x278>
    4694:	d4 1a 7f e0 	ldd  [ %o1 + -32 ], %o2
    4698:	d8 1a 7f e8 	ldd  [ %o1 + -24 ], %o4
    469c:	c4 1a 7f f0 	ldd  [ %o1 + -16 ], %g2
    46a0:	c8 1a 7f f8 	ldd  [ %o1 + -8 ], %g4
    46a4:	d4 22 3f e0 	st  %o2, [ %o0 + -32 ]
    46a8:	d6 22 3f e4 	st  %o3, [ %o0 + -28 ]
    46ac:	d8 22 3f e8 	st  %o4, [ %o0 + -24 ]
    46b0:	da 22 3f ec 	st  %o5, [ %o0 + -20 ]
    46b4:	c4 22 3f f0 	st  %g2, [ %o0 + -16 ]
    46b8:	c6 22 3f f4 	st  %g3, [ %o0 + -12 ]
    46bc:	c8 22 3f f8 	st  %g4, [ %o0 + -8 ]
    46c0:	ca 22 3f fc 	st  %g5, [ %o0 + -4 ]
    46c4:	d4 1a 7f c0 	ldd  [ %o1 + -64 ], %o2
    46c8:	d8 1a 7f c8 	ldd  [ %o1 + -56 ], %o4
    46cc:	c4 1a 7f d0 	ldd  [ %o1 + -48 ], %g2
    46d0:	c8 1a 7f d8 	ldd  [ %o1 + -40 ], %g4
    46d4:	d4 22 3f c0 	st  %o2, [ %o0 + -64 ]
    46d8:	d6 22 3f c4 	st  %o3, [ %o0 + -60 ]
    46dc:	d8 22 3f c8 	st  %o4, [ %o0 + -56 ]
    46e0:	da 22 3f cc 	st  %o5, [ %o0 + -52 ]
    46e4:	c4 22 3f d0 	st  %g2, [ %o0 + -48 ]
    46e8:	c6 22 3f d4 	st  %g3, [ %o0 + -44 ]
    46ec:	c8 22 3f d8 	st  %g4, [ %o0 + -40 ]
    46f0:	ca 22 3f dc 	st  %g5, [ %o0 + -36 ]
    46f4:	d4 1a 7f a0 	ldd  [ %o1 + -96 ], %o2
    46f8:	d8 1a 7f a8 	ldd  [ %o1 + -88 ], %o4
    46fc:	c4 1a 7f b0 	ldd  [ %o1 + -80 ], %g2
    4700:	c8 1a 7f b8 	ldd  [ %o1 + -72 ], %g4
    4704:	d4 22 3f a0 	st  %o2, [ %o0 + -96 ]
    4708:	d6 22 3f a4 	st  %o3, [ %o0 + -92 ]
    470c:	d8 22 3f a8 	st  %o4, [ %o0 + -88 ]
    4710:	da 22 3f ac 	st  %o5, [ %o0 + -84 ]
    4714:	c4 22 3f b0 	st  %g2, [ %o0 + -80 ]
    4718:	c6 22 3f b4 	st  %g3, [ %o0 + -76 ]
    471c:	c8 22 3f b8 	st  %g4, [ %o0 + -72 ]
    4720:	ca 22 3f bc 	st  %g5, [ %o0 + -68 ]
    4724:	d4 1a 7f 80 	ldd  [ %o1 + -128 ], %o2
    4728:	d8 1a 7f 88 	ldd  [ %o1 + -120 ], %o4
    472c:	c4 1a 7f 90 	ldd  [ %o1 + -112 ], %g2
    4730:	c8 1a 7f 98 	ldd  [ %o1 + -104 ], %g4
    4734:	d4 22 3f 80 	st  %o2, [ %o0 + -128 ]
    4738:	d6 22 3f 84 	st  %o3, [ %o0 + -124 ]
    473c:	d8 22 3f 88 	st  %o4, [ %o0 + -120 ]
    4740:	da 22 3f 8c 	st  %o5, [ %o0 + -116 ]
    4744:	c4 22 3f 90 	st  %g2, [ %o0 + -112 ]
    4748:	c6 22 3f 94 	st  %g3, [ %o0 + -108 ]
    474c:	c8 22 3f 98 	st  %g4, [ %o0 + -104 ]
    4750:	ca 22 3f 9c 	st  %g5, [ %o0 + -100 ]
    4754:	8c a1 a0 80 	subcc  %g6, 0x80, %g6
    4758:	92 22 60 80 	sub  %o1, 0x80, %o1
    475c:	12 bf ff ce 	bne  4694 <__GI_memmove+0x6c>
    4760:	90 22 20 80 	sub  %o0, 0x80, %o0
    4764:	8c 88 60 70 	andcc  %g1, 0x70, %g6
    4768:	02 80 00 34 	be  4838 <__GI_memmove+0x210>
    476c:	80 88 60 08 	btst  8, %g1
    4770:	99 31 a0 01 	srl  %g6, 1, %o4
    4774:	84 10 00 0f 	mov  %o7, %g2
    4778:	98 01 80 0c 	add  %g6, %o4, %o4
    477c:	40 00 05 3d 	call  5c70 <__GI_memcpy+0x1064>
    4780:	92 22 40 06 	sub  %o1, %g6, %o1
    4784:	9e 10 00 02 	mov  %g2, %o7
    4788:	81 c3 60 bc 	jmp  %o5 + 0xbc
    478c:	90 22 00 06 	sub  %o0, %g6, %o0
    4790:	c4 1a 60 60 	ldd  [ %o1 + 0x60 ], %g2
    4794:	c8 1a 60 68 	ldd  [ %o1 + 0x68 ], %g4
    4798:	c4 22 20 60 	st  %g2, [ %o0 + 0x60 ]
    479c:	c6 22 20 64 	st  %g3, [ %o0 + 0x64 ]
    47a0:	c8 22 20 68 	st  %g4, [ %o0 + 0x68 ]
    47a4:	ca 22 20 6c 	st  %g5, [ %o0 + 0x6c ]
    47a8:	c4 1a 60 50 	ldd  [ %o1 + 0x50 ], %g2
    47ac:	c8 1a 60 58 	ldd  [ %o1 + 0x58 ], %g4
    47b0:	c4 22 20 50 	st  %g2, [ %o0 + 0x50 ]
    47b4:	c6 22 20 54 	st  %g3, [ %o0 + 0x54 ]
    47b8:	c8 22 20 58 	st  %g4, [ %o0 + 0x58 ]
    47bc:	ca 22 20 5c 	st  %g5, [ %o0 + 0x5c ]
    47c0:	c4 1a 60 40 	ldd  [ %o1 + 0x40 ], %g2
    47c4:	c8 1a 60 48 	ldd  [ %o1 + 0x48 ], %g4
    47c8:	c4 22 20 40 	st  %g2, [ %o0 + 0x40 ]
    47cc:	c6 22 20 44 	st  %g3, [ %o0 + 0x44 ]
    47d0:	c8 22 20 48 	st  %g4, [ %o0 + 0x48 ]
    47d4:	ca 22 20 4c 	st  %g5, [ %o0 + 0x4c ]
    47d8:	c4 1a 60 30 	ldd  [ %o1 + 0x30 ], %g2
    47dc:	c8 1a 60 38 	ldd  [ %o1 + 0x38 ], %g4
    47e0:	c4 22 20 30 	st  %g2, [ %o0 + 0x30 ]
    47e4:	c6 22 20 34 	st  %g3, [ %o0 + 0x34 ]
    47e8:	c8 22 20 38 	st  %g4, [ %o0 + 0x38 ]
    47ec:	ca 22 20 3c 	st  %g5, [ %o0 + 0x3c ]
    47f0:	c4 1a 60 20 	ldd  [ %o1 + 0x20 ], %g2
    47f4:	c8 1a 60 28 	ldd  [ %o1 + 0x28 ], %g4
    47f8:	c4 22 20 20 	st  %g2, [ %o0 + 0x20 ]
    47fc:	c6 22 20 24 	st  %g3, [ %o0 + 0x24 ]
    4800:	c8 22 20 28 	st  %g4, [ %o0 + 0x28 ]
    4804:	ca 22 20 2c 	st  %g5, [ %o0 + 0x2c ]
    4808:	c4 1a 60 10 	ldd  [ %o1 + 0x10 ], %g2
    480c:	c8 1a 60 18 	ldd  [ %o1 + 0x18 ], %g4
    4810:	c4 22 20 10 	st  %g2, [ %o0 + 0x10 ]
    4814:	c6 22 20 14 	st  %g3, [ %o0 + 0x14 ]
    4818:	c8 22 20 18 	st  %g4, [ %o0 + 0x18 ]
    481c:	ca 22 20 1c 	st  %g5, [ %o0 + 0x1c ]
    4820:	c4 1a 60 00 	ldd  [ %o1 ], %g2
    4824:	c8 1a 60 08 	ldd  [ %o1 + 8 ], %g4
    4828:	c4 22 20 00 	st  %g2, [ %o0 ]
    482c:	c6 22 20 04 	st  %g3, [ %o0 + 4 ]
    4830:	c8 22 20 08 	st  %g4, [ %o0 + 8 ]
    4834:	ca 22 20 0c 	st  %g5, [ %o0 + 0xc ]
    4838:	02 80 00 07 	be  4854 <__GI_memmove+0x22c>
    483c:	80 88 60 04 	btst  4, %g1
    4840:	c4 1a 7f f8 	ldd  [ %o1 + -8 ], %g2
    4844:	90 22 20 08 	sub  %o0, 8, %o0
    4848:	92 22 60 08 	sub  %o1, 8, %o1
    484c:	c4 22 00 00 	st  %g2, [ %o0 ]
    4850:	c6 22 20 04 	st  %g3, [ %o0 + 4 ]
    4854:	02 80 00 06 	be  486c <__GI_memmove+0x244>
    4858:	80 88 60 02 	btst  2, %g1
    485c:	c4 02 7f fc 	ld  [ %o1 + -4 ], %g2
    4860:	92 22 60 04 	sub  %o1, 4, %o1
    4864:	c4 22 3f fc 	st  %g2, [ %o0 + -4 ]
    4868:	90 22 20 04 	sub  %o0, 4, %o0
    486c:	02 80 00 06 	be  4884 <__GI_memmove+0x25c>
    4870:	80 88 60 01 	btst  1, %g1
    4874:	c4 12 7f fe 	lduh  [ %o1 + -2 ], %g2
    4878:	92 22 60 02 	sub  %o1, 2, %o1
    487c:	c4 32 3f fe 	sth  %g2, [ %o0 + -2 ]
    4880:	90 22 20 02 	sub  %o0, 2, %o0
    4884:	02 80 00 04 	be  4894 <__GI_memmove+0x26c>
    4888:	01 00 00 00 	nop 
    488c:	c4 0a 7f ff 	ldub  [ %o1 + -1 ], %g2
    4890:	c4 2a 3f ff 	stb  %g2, [ %o0 + -1 ]
    4894:	81 c3 e0 08 	retl 
    4898:	d0 03 a0 40 	ld  [ %sp + 0x40 ], %o0
    489c:	d4 1a 7f e0 	ldd  [ %o1 + -32 ], %o2
    48a0:	d8 1a 7f e8 	ldd  [ %o1 + -24 ], %o4
    48a4:	c4 1a 7f f0 	ldd  [ %o1 + -16 ], %g2
    48a8:	c8 1a 7f f8 	ldd  [ %o1 + -8 ], %g4
    48ac:	d4 3a 3f e0 	std  %o2, [ %o0 + -32 ]
    48b0:	d8 3a 3f e8 	std  %o4, [ %o0 + -24 ]
    48b4:	c4 3a 3f f0 	std  %g2, [ %o0 + -16 ]
    48b8:	c8 3a 3f f8 	std  %g4, [ %o0 + -8 ]
    48bc:	d4 1a 7f c0 	ldd  [ %o1 + -64 ], %o2
    48c0:	d8 1a 7f c8 	ldd  [ %o1 + -56 ], %o4
    48c4:	c4 1a 7f d0 	ldd  [ %o1 + -48 ], %g2
    48c8:	c8 1a 7f d8 	ldd  [ %o1 + -40 ], %g4
    48cc:	d4 3a 3f c0 	std  %o2, [ %o0 + -64 ]
    48d0:	d8 3a 3f c8 	std  %o4, [ %o0 + -56 ]
    48d4:	c4 3a 3f d0 	std  %g2, [ %o0 + -48 ]
    48d8:	c8 3a 3f d8 	std  %g4, [ %o0 + -40 ]
    48dc:	d4 1a 7f a0 	ldd  [ %o1 + -96 ], %o2
    48e0:	d8 1a 7f a8 	ldd  [ %o1 + -88 ], %o4
    48e4:	c4 1a 7f b0 	ldd  [ %o1 + -80 ], %g2
    48e8:	c8 1a 7f b8 	ldd  [ %o1 + -72 ], %g4
    48ec:	d4 3a 3f a0 	std  %o2, [ %o0 + -96 ]
    48f0:	d8 3a 3f a8 	std  %o4, [ %o0 + -88 ]
    48f4:	c4 3a 3f b0 	std  %g2, [ %o0 + -80 ]
    48f8:	c8 3a 3f b8 	std  %g4, [ %o0 + -72 ]
    48fc:	d4 1a 7f 80 	ldd  [ %o1 + -128 ], %o2
    4900:	d8 1a 7f 88 	ldd  [ %o1 + -120 ], %o4
    4904:	c4 1a 7f 90 	ldd  [ %o1 + -112 ], %g2
    4908:	c8 1a 7f 98 	ldd  [ %o1 + -104 ], %g4
    490c:	d4 3a 3f 80 	std  %o2, [ %o0 + -128 ]
    4910:	d8 3a 3f 88 	std  %o4, [ %o0 + -120 ]
    4914:	c4 3a 3f 90 	std  %g2, [ %o0 + -112 ]
    4918:	c8 3a 3f 98 	std  %g4, [ %o0 + -104 ]
    491c:	8c a1 a0 80 	subcc  %g6, 0x80, %g6
    4920:	92 22 60 80 	sub  %o1, 0x80, %o1
    4924:	12 bf ff de 	bne  489c <__GI_memmove+0x274>
    4928:	90 22 20 80 	sub  %o0, 0x80, %o0
    492c:	8c 88 60 70 	andcc  %g1, 0x70, %g6
    4930:	02 bf ff c2 	be  4838 <__GI_memmove+0x210>
    4934:	80 88 60 08 	btst  8, %g1
    4938:	99 31 a0 01 	srl  %g6, 1, %o4
    493c:	84 10 00 0f 	mov  %o7, %g2
    4940:	98 01 80 0c 	add  %g6, %o4, %o4
    4944:	40 00 04 cb 	call  5c70 <__GI_memcpy+0x1064>
    4948:	92 22 40 06 	sub  %o1, %g6, %o1
    494c:	9e 10 00 02 	mov  %g2, %o7
    4950:	81 c3 7e f4 	jmp  %o5 + -268
    4954:	90 22 00 06 	sub  %o0, %g6, %o0
    4958:	96 0a a0 0e 	and  %o2, 0xe, %o3
    495c:	84 10 00 0f 	mov  %o7, %g2
    4960:	99 2a e0 03 	sll  %o3, 3, %o4
    4964:	90 22 00 0b 	sub  %o0, %o3, %o0
    4968:	40 00 04 c2 	call  5c70 <__GI_memcpy+0x1064>
    496c:	92 22 40 0b 	sub  %o1, %o3, %o1
    4970:	9e 10 00 02 	mov  %g2, %o7
    4974:	81 c3 60 84 	jmp  %o5 + 0x84
    4978:	80 8a a0 01 	btst  1, %o2
    497c:	c4 0a 60 0c 	ldub  [ %o1 + 0xc ], %g2
    4980:	c6 0a 60 0d 	ldub  [ %o1 + 0xd ], %g3
    4984:	c4 2a 20 0c 	stb  %g2, [ %o0 + 0xc ]
    4988:	c6 2a 20 0d 	stb  %g3, [ %o0 + 0xd ]
    498c:	c4 0a 60 0a 	ldub  [ %o1 + 0xa ], %g2
    4990:	c6 0a 60 0b 	ldub  [ %o1 + 0xb ], %g3
    4994:	c4 2a 20 0a 	stb  %g2, [ %o0 + 0xa ]
    4998:	c6 2a 20 0b 	stb  %g3, [ %o0 + 0xb ]
    499c:	c4 0a 60 08 	ldub  [ %o1 + 8 ], %g2
    49a0:	c6 0a 60 09 	ldub  [ %o1 + 9 ], %g3
    49a4:	c4 2a 20 08 	stb  %g2, [ %o0 + 8 ]
    49a8:	c6 2a 20 09 	stb  %g3, [ %o0 + 9 ]
    49ac:	c4 0a 60 06 	ldub  [ %o1 + 6 ], %g2
    49b0:	c6 0a 60 07 	ldub  [ %o1 + 7 ], %g3
    49b4:	c4 2a 20 06 	stb  %g2, [ %o0 + 6 ]
    49b8:	c6 2a 20 07 	stb  %g3, [ %o0 + 7 ]
    49bc:	c4 0a 60 04 	ldub  [ %o1 + 4 ], %g2
    49c0:	c6 0a 60 05 	ldub  [ %o1 + 5 ], %g3
    49c4:	c4 2a 20 04 	stb  %g2, [ %o0 + 4 ]
    49c8:	c6 2a 20 05 	stb  %g3, [ %o0 + 5 ]
    49cc:	c4 0a 60 02 	ldub  [ %o1 + 2 ], %g2
    49d0:	c6 0a 60 03 	ldub  [ %o1 + 3 ], %g3
    49d4:	c4 2a 20 02 	stb  %g2, [ %o0 + 2 ]
    49d8:	c6 2a 20 03 	stb  %g3, [ %o0 + 3 ]
    49dc:	c4 0a 60 00 	ldub  [ %o1 ], %g2
    49e0:	c6 0a 60 01 	ldub  [ %o1 + 1 ], %g3
    49e4:	c4 2a 20 00 	stb  %g2, [ %o0 ]
    49e8:	c6 2a 20 01 	stb  %g3, [ %o0 + 1 ]
    49ec:	02 80 00 04 	be  49fc <__GI_memmove+0x3d4>
    49f0:	01 00 00 00 	nop 
    49f4:	c4 0a 7f ff 	ldub  [ %o1 + -1 ], %g2
    49f8:	c4 2a 3f ff 	stb  %g2, [ %o0 + -1 ]
    49fc:	81 c3 e0 08 	retl 
    4a00:	d0 03 a0 40 	ld  [ %sp + 0x40 ], %o0
    4a04:	12 bf ff d5 	bne  4958 <__GI_memmove+0x330>
    4a08:	80 8a a0 08 	btst  8, %o2
    4a0c:	02 80 00 08 	be  4a2c <__GI_memmove+0x404>
    4a10:	80 8a a0 04 	btst  4, %o2
    4a14:	c4 02 7f f8 	ld  [ %o1 + -8 ], %g2
    4a18:	c6 02 7f fc 	ld  [ %o1 + -4 ], %g3
    4a1c:	92 22 60 08 	sub  %o1, 8, %o1
    4a20:	c4 22 3f f8 	st  %g2, [ %o0 + -8 ]
    4a24:	c6 22 3f fc 	st  %g3, [ %o0 + -4 ]
    4a28:	90 22 20 08 	sub  %o0, 8, %o0
    4a2c:	10 bf ff 8a 	b  4854 <__GI_memmove+0x22c>
    4a30:	82 10 00 0a 	mov  %o2, %g1
    4a34:	80 a2 a0 0f 	cmp  %o2, 0xf
    4a38:	08 bf ff c8 	bleu  4958 <__GI_memmove+0x330>
    4a3c:	80 8a 20 03 	btst  3, %o0
    4a40:	02 80 00 11 	be  4a84 <__GI_memmove+0x45c>
    4a44:	80 8a 20 01 	btst  1, %o0
    4a48:	02 80 00 08 	be  4a68 <__GI_memmove+0x440>
    4a4c:	80 8a 20 02 	btst  2, %o0
    4a50:	ca 0a 7f ff 	ldub  [ %o1 + -1 ], %g5
    4a54:	92 22 60 01 	dec  %o1
    4a58:	ca 2a 3f ff 	stb  %g5, [ %o0 + -1 ]
    4a5c:	90 22 20 01 	dec  %o0
    4a60:	02 80 00 09 	be  4a84 <__GI_memmove+0x45c>
    4a64:	94 22 a0 01 	dec  %o2
    4a68:	ca 0a 7f ff 	ldub  [ %o1 + -1 ], %g5
    4a6c:	92 22 60 02 	sub  %o1, 2, %o1
    4a70:	ca 2a 3f ff 	stb  %g5, [ %o0 + -1 ]
    4a74:	90 22 20 02 	sub  %o0, 2, %o0
    4a78:	ca 0a 40 00 	ldub  [ %o1 ], %g5
    4a7c:	94 22 a0 02 	sub  %o2, 2, %o2
    4a80:	ca 2a 00 00 	stb  %g5, [ %o0 ]
    4a84:	84 0a 60 03 	and  %o1, 3, %g2
    4a88:	92 0a 7f fc 	and  %o1, -4, %o1
    4a8c:	86 0a a0 0c 	and  %o2, 0xc, %g3
    4a90:	92 02 60 04 	add  %o1, 4, %o1
    4a94:	80 a0 e0 04 	cmp  %g3, 4
    4a98:	89 28 a0 03 	sll  %g2, 3, %g4
    4a9c:	84 10 20 20 	mov  0x20, %g2
    4aa0:	02 80 00 18 	be  4b00 <__GI_memmove+0x4d8>
    4aa4:	8c 20 80 04 	sub  %g2, %g4, %g6
    4aa8:	0a 80 00 10 	bcs  4ae8 <__GI_memmove+0x4c0>
    4aac:	80 a0 e0 08 	cmp  %g3, 8
    4ab0:	02 80 00 08 	be  4ad0 <__GI_memmove+0x4a8>
    4ab4:	87 32 a0 02 	srl  %o2, 2, %g3
    4ab8:	d6 02 7f fc 	ld  [ %o1 + -4 ], %o3
    4abc:	90 02 3f f8 	add  %o0, -8, %o0
    4ac0:	d8 02 7f f8 	ld  [ %o1 + -8 ], %o4
    4ac4:	92 02 7f f0 	add  %o1, -16, %o1
    4ac8:	10 80 00 1e 	b  4b40 <__GI_memmove+0x518>
    4acc:	86 00 e0 01 	inc  %g3
    4ad0:	d8 02 7f fc 	ld  [ %o1 + -4 ], %o4
    4ad4:	90 02 3f fc 	add  %o0, -4, %o0
    4ad8:	c2 02 7f f8 	ld  [ %o1 + -8 ], %g1
    4adc:	92 02 7f f4 	add  %o1, -12, %o1
    4ae0:	10 80 00 1d 	b  4b54 <__GI_memmove+0x52c>
    4ae4:	86 00 e0 02 	add  %g3, 2, %g3
    4ae8:	da 02 7f fc 	ld  [ %o1 + -4 ], %o5
    4aec:	90 02 3f f4 	add  %o0, -12, %o0
    4af0:	d6 02 7f f8 	ld  [ %o1 + -8 ], %o3
    4af4:	92 02 7f ec 	add  %o1, -20, %o1
    4af8:	10 80 00 0d 	b  4b2c <__GI_memmove+0x504>
    4afc:	87 32 a0 02 	srl  %o2, 2, %g3
    4b00:	c2 02 7f fc 	ld  [ %o1 + -4 ], %g1
    4b04:	87 32 a0 02 	srl  %o2, 2, %g3
    4b08:	da 02 7f f8 	ld  [ %o1 + -8 ], %o5
    4b0c:	92 02 7f e8 	add  %o1, -24, %o1
    4b10:	90 02 3f f0 	add  %o0, -16, %o0
    4b14:	86 00 ff ff 	add  %g3, -1, %g3
    4b18:	d6 02 60 0c 	ld  [ %o1 + 0xc ], %o3
    4b1c:	85 2b 40 04 	sll  %o5, %g4, %g2
    4b20:	8b 30 40 06 	srl  %g1, %g6, %g5
    4b24:	84 10 80 05 	or  %g2, %g5, %g2
    4b28:	c4 22 20 0c 	st  %g2, [ %o0 + 0xc ]
    4b2c:	d8 02 60 08 	ld  [ %o1 + 8 ], %o4
    4b30:	85 2a c0 04 	sll  %o3, %g4, %g2
    4b34:	8b 33 40 06 	srl  %o5, %g6, %g5
    4b38:	84 10 80 05 	or  %g2, %g5, %g2
    4b3c:	c4 22 20 08 	st  %g2, [ %o0 + 8 ]
    4b40:	c2 02 60 04 	ld  [ %o1 + 4 ], %g1
    4b44:	85 2b 00 04 	sll  %o4, %g4, %g2
    4b48:	8b 32 c0 06 	srl  %o3, %g6, %g5
    4b4c:	84 10 80 05 	or  %g2, %g5, %g2
    4b50:	c4 22 20 04 	st  %g2, [ %o0 + 4 ]
    4b54:	da 02 40 00 	ld  [ %o1 ], %o5
    4b58:	85 28 40 04 	sll  %g1, %g4, %g2
    4b5c:	8b 33 00 06 	srl  %o4, %g6, %g5
    4b60:	86 80 ff fc 	addcc  %g3, -4, %g3
    4b64:	84 10 80 05 	or  %g2, %g5, %g2
    4b68:	92 02 7f f0 	add  %o1, -16, %o1
    4b6c:	c4 22 00 00 	st  %g2, [ %o0 ]
    4b70:	90 02 3f f0 	add  %o0, -16, %o0
    4b74:	32 bf ff ea 	bne,a   4b1c <__GI_memmove+0x4f4>
    4b78:	d6 02 60 0c 	ld  [ %o1 + 0xc ], %o3
    4b7c:	85 2b 40 04 	sll  %o5, %g4, %g2
    4b80:	8b 30 40 06 	srl  %g1, %g6, %g5
    4b84:	87 31 20 03 	srl  %g4, 3, %g3
    4b88:	84 10 80 05 	or  %g2, %g5, %g2
    4b8c:	92 02 40 03 	add  %o1, %g3, %o1
    4b90:	80 8a a0 02 	btst  2, %o2
    4b94:	c4 22 20 0c 	st  %g2, [ %o0 + 0xc ]
    4b98:	02 80 00 08 	be  4bb8 <__GI_memmove+0x590>
    4b9c:	80 8a a0 01 	btst  1, %o2
    4ba0:	ca 0a 60 0f 	ldub  [ %o1 + 0xf ], %g5
    4ba4:	92 02 7f fe 	add  %o1, -2, %o1
    4ba8:	ca 2a 20 0b 	stb  %g5, [ %o0 + 0xb ]
    4bac:	90 02 3f fe 	add  %o0, -2, %o0
    4bb0:	ca 0a 60 10 	ldub  [ %o1 + 0x10 ], %g5
    4bb4:	ca 2a 20 0c 	stb  %g5, [ %o0 + 0xc ]
    4bb8:	02 80 00 04 	be  4bc8 <__GI_memmove+0x5a0>
    4bbc:	01 00 00 00 	nop 
    4bc0:	ca 0a 60 0f 	ldub  [ %o1 + 0xf ], %g5
    4bc4:	ca 2a 20 0b 	stb  %g5, [ %o0 + 0xb ]
    4bc8:	81 c3 e0 08 	retl 
    4bcc:	d0 03 a0 40 	ld  [ %sp + 0x40 ], %o0
    4bd0:	80 8a 60 01 	btst  1, %o1
    4bd4:	02 80 00 08 	be  4bf4 <__GI_memmove+0x5cc>
    4bd8:	80 8a 60 02 	btst  2, %o1
    4bdc:	c4 0a 40 00 	ldub  [ %o1 ], %g2
    4be0:	92 02 60 01 	inc  %o1
    4be4:	c4 2a 00 00 	stb  %g2, [ %o0 ]
    4be8:	94 22 a0 01 	dec  %o2
    4bec:	12 80 00 10 	bne  4c2c <__GI_memcpy+0x20>
    4bf0:	90 02 20 01 	inc  %o0
    4bf4:	c4 12 40 00 	lduh  [ %o1 ], %g2
    4bf8:	92 02 60 02 	add  %o1, 2, %o1
    4bfc:	c4 32 00 00 	sth  %g2, [ %o0 ]
    4c00:	94 22 a0 02 	sub  %o2, 2, %o2
    4c04:	10 80 00 0a 	b  4c2c <__GI_memcpy+0x20>
    4c08:	90 02 20 02 	add  %o0, 2, %o0

00004c0c <__GI_memcpy>:
    4c0c:	98 22 00 09 	sub  %o0, %o1, %o4
    4c10:	d0 23 a0 40 	st  %o0, [ %sp + 0x40 ]
    4c14:	9a 8b 20 03 	andcc  %o4, 3, %o5
    4c18:	12 80 00 f4 	bne  4fe8 <__GI_memcpy+0x3dc>
    4c1c:	80 a2 a0 0f 	cmp  %o2, 0xf
    4c20:	08 80 04 08 	bleu  5c40 <__GI_memcpy+0x1034>
    4c24:	80 8a 60 03 	btst  3, %o1
    4c28:	12 bf ff ea 	bne  4bd0 <__GI_memmove+0x5a8>
    4c2c:	80 8a 60 04 	btst  4, %o1
    4c30:	02 80 00 07 	be  4c4c <__GI_memcpy+0x40>
    4c34:	82 10 00 0a 	mov  %o2, %g1
    4c38:	d8 02 40 00 	ld  [ %o1 ], %o4
    4c3c:	82 20 60 04 	sub  %g1, 4, %g1
    4c40:	d8 22 00 00 	st  %o4, [ %o0 ]
    4c44:	92 02 60 04 	add  %o1, 4, %o1
    4c48:	90 02 20 04 	add  %o0, 4, %o0
    4c4c:	8c 88 7f 80 	andcc  %g1, -128, %g6
    4c50:	02 80 00 37 	be  4d2c <__GI_memcpy+0x120>
    4c54:	80 8a 20 04 	btst  4, %o0
    4c58:	02 80 00 84 	be  4e68 <__GI_memcpy+0x25c>
    4c5c:	d4 1a 60 00 	ldd  [ %o1 ], %o2
    4c60:	d8 1a 60 08 	ldd  [ %o1 + 8 ], %o4
    4c64:	c4 1a 60 10 	ldd  [ %o1 + 0x10 ], %g2
    4c68:	c8 1a 60 18 	ldd  [ %o1 + 0x18 ], %g4
    4c6c:	d4 22 20 00 	st  %o2, [ %o0 ]
    4c70:	d6 22 20 04 	st  %o3, [ %o0 + 4 ]
    4c74:	d8 22 20 08 	st  %o4, [ %o0 + 8 ]
    4c78:	da 22 20 0c 	st  %o5, [ %o0 + 0xc ]
    4c7c:	c4 22 20 10 	st  %g2, [ %o0 + 0x10 ]
    4c80:	c6 22 20 14 	st  %g3, [ %o0 + 0x14 ]
    4c84:	c8 22 20 18 	st  %g4, [ %o0 + 0x18 ]
    4c88:	ca 22 20 1c 	st  %g5, [ %o0 + 0x1c ]
    4c8c:	d4 1a 60 20 	ldd  [ %o1 + 0x20 ], %o2
    4c90:	d8 1a 60 28 	ldd  [ %o1 + 0x28 ], %o4
    4c94:	c4 1a 60 30 	ldd  [ %o1 + 0x30 ], %g2
    4c98:	c8 1a 60 38 	ldd  [ %o1 + 0x38 ], %g4
    4c9c:	d4 22 20 20 	st  %o2, [ %o0 + 0x20 ]
    4ca0:	d6 22 20 24 	st  %o3, [ %o0 + 0x24 ]
    4ca4:	d8 22 20 28 	st  %o4, [ %o0 + 0x28 ]
    4ca8:	da 22 20 2c 	st  %o5, [ %o0 + 0x2c ]
    4cac:	c4 22 20 30 	st  %g2, [ %o0 + 0x30 ]
    4cb0:	c6 22 20 34 	st  %g3, [ %o0 + 0x34 ]
    4cb4:	c8 22 20 38 	st  %g4, [ %o0 + 0x38 ]
    4cb8:	ca 22 20 3c 	st  %g5, [ %o0 + 0x3c ]
    4cbc:	d4 1a 60 40 	ldd  [ %o1 + 0x40 ], %o2
    4cc0:	d8 1a 60 48 	ldd  [ %o1 + 0x48 ], %o4
    4cc4:	c4 1a 60 50 	ldd  [ %o1 + 0x50 ], %g2
    4cc8:	c8 1a 60 58 	ldd  [ %o1 + 0x58 ], %g4
    4ccc:	d4 22 20 40 	st  %o2, [ %o0 + 0x40 ]
    4cd0:	d6 22 20 44 	st  %o3, [ %o0 + 0x44 ]
    4cd4:	d8 22 20 48 	st  %o4, [ %o0 + 0x48 ]
    4cd8:	da 22 20 4c 	st  %o5, [ %o0 + 0x4c ]
    4cdc:	c4 22 20 50 	st  %g2, [ %o0 + 0x50 ]
    4ce0:	c6 22 20 54 	st  %g3, [ %o0 + 0x54 ]
    4ce4:	c8 22 20 58 	st  %g4, [ %o0 + 0x58 ]
    4ce8:	ca 22 20 5c 	st  %g5, [ %o0 + 0x5c ]
    4cec:	d4 1a 60 60 	ldd  [ %o1 + 0x60 ], %o2
    4cf0:	d8 1a 60 68 	ldd  [ %o1 + 0x68 ], %o4
    4cf4:	c4 1a 60 70 	ldd  [ %o1 + 0x70 ], %g2
    4cf8:	c8 1a 60 78 	ldd  [ %o1 + 0x78 ], %g4
    4cfc:	d4 22 20 60 	st  %o2, [ %o0 + 0x60 ]
    4d00:	d6 22 20 64 	st  %o3, [ %o0 + 0x64 ]
    4d04:	d8 22 20 68 	st  %o4, [ %o0 + 0x68 ]
    4d08:	da 22 20 6c 	st  %o5, [ %o0 + 0x6c ]
    4d0c:	c4 22 20 70 	st  %g2, [ %o0 + 0x70 ]
    4d10:	c6 22 20 74 	st  %g3, [ %o0 + 0x74 ]
    4d14:	c8 22 20 78 	st  %g4, [ %o0 + 0x78 ]
    4d18:	ca 22 20 7c 	st  %g5, [ %o0 + 0x7c ]
    4d1c:	8c a1 a0 80 	subcc  %g6, 0x80, %g6
    4d20:	92 02 60 80 	add  %o1, 0x80, %o1
    4d24:	12 bf ff ce 	bne  4c5c <__GI_memcpy+0x50>
    4d28:	90 02 20 80 	add  %o0, 0x80, %o0
    4d2c:	8c 88 60 70 	andcc  %g1, 0x70, %g6
    4d30:	02 80 00 34 	be  4e00 <__GI_memcpy+0x1f4>
    4d34:	80 88 60 08 	btst  8, %g1
    4d38:	99 31 a0 01 	srl  %g6, 1, %o4
    4d3c:	84 10 00 0f 	mov  %o7, %g2
    4d40:	98 01 80 0c 	add  %g6, %o4, %o4
    4d44:	92 02 40 06 	add  %o1, %g6, %o1
    4d48:	40 00 03 ca 	call  5c70 <__GI_memcpy+0x1064>
    4d4c:	90 02 00 06 	add  %o0, %g6, %o0
    4d50:	81 c3 60 b8 	jmp  %o5 + 0xb8
    4d54:	9e 10 00 02 	mov  %g2, %o7
    4d58:	c4 1a 7f 90 	ldd  [ %o1 + -112 ], %g2
    4d5c:	c8 1a 7f 98 	ldd  [ %o1 + -104 ], %g4
    4d60:	c4 22 3f 90 	st  %g2, [ %o0 + -112 ]
    4d64:	c6 22 3f 94 	st  %g3, [ %o0 + -108 ]
    4d68:	c8 22 3f 98 	st  %g4, [ %o0 + -104 ]
    4d6c:	ca 22 3f 9c 	st  %g5, [ %o0 + -100 ]
    4d70:	c4 1a 7f a0 	ldd  [ %o1 + -96 ], %g2
    4d74:	c8 1a 7f a8 	ldd  [ %o1 + -88 ], %g4
    4d78:	c4 22 3f a0 	st  %g2, [ %o0 + -96 ]
    4d7c:	c6 22 3f a4 	st  %g3, [ %o0 + -92 ]
    4d80:	c8 22 3f a8 	st  %g4, [ %o0 + -88 ]
    4d84:	ca 22 3f ac 	st  %g5, [ %o0 + -84 ]
    4d88:	c4 1a 7f b0 	ldd  [ %o1 + -80 ], %g2
    4d8c:	c8 1a 7f b8 	ldd  [ %o1 + -72 ], %g4
    4d90:	c4 22 3f b0 	st  %g2, [ %o0 + -80 ]
    4d94:	c6 22 3f b4 	st  %g3, [ %o0 + -76 ]
    4d98:	c8 22 3f b8 	st  %g4, [ %o0 + -72 ]
    4d9c:	ca 22 3f bc 	st  %g5, [ %o0 + -68 ]
    4da0:	c4 1a 7f c0 	ldd  [ %o1 + -64 ], %g2
    4da4:	c8 1a 7f c8 	ldd  [ %o1 + -56 ], %g4
    4da8:	c4 22 3f c0 	st  %g2, [ %o0 + -64 ]
    4dac:	c6 22 3f c4 	st  %g3, [ %o0 + -60 ]
    4db0:	c8 22 3f c8 	st  %g4, [ %o0 + -56 ]
    4db4:	ca 22 3f cc 	st  %g5, [ %o0 + -52 ]
    4db8:	c4 1a 7f d0 	ldd  [ %o1 + -48 ], %g2
    4dbc:	c8 1a 7f d8 	ldd  [ %o1 + -40 ], %g4
    4dc0:	c4 22 3f d0 	st  %g2, [ %o0 + -48 ]
    4dc4:	c6 22 3f d4 	st  %g3, [ %o0 + -44 ]
    4dc8:	c8 22 3f d8 	st  %g4, [ %o0 + -40 ]
    4dcc:	ca 22 3f dc 	st  %g5, [ %o0 + -36 ]
    4dd0:	c4 1a 7f e0 	ldd  [ %o1 + -32 ], %g2
    4dd4:	c8 1a 7f e8 	ldd  [ %o1 + -24 ], %g4
    4dd8:	c4 22 3f e0 	st  %g2, [ %o0 + -32 ]
    4ddc:	c6 22 3f e4 	st  %g3, [ %o0 + -28 ]
    4de0:	c8 22 3f e8 	st  %g4, [ %o0 + -24 ]
    4de4:	ca 22 3f ec 	st  %g5, [ %o0 + -20 ]
    4de8:	c4 1a 7f f0 	ldd  [ %o1 + -16 ], %g2
    4dec:	c8 1a 7f f8 	ldd  [ %o1 + -8 ], %g4
    4df0:	c4 22 3f f0 	st  %g2, [ %o0 + -16 ]
    4df4:	c6 22 3f f4 	st  %g3, [ %o0 + -12 ]
    4df8:	c8 22 3f f8 	st  %g4, [ %o0 + -8 ]
    4dfc:	ca 22 3f fc 	st  %g5, [ %o0 + -4 ]
    4e00:	02 80 00 07 	be  4e1c <__GI_memcpy+0x210>
    4e04:	80 88 60 04 	btst  4, %g1
    4e08:	c4 1a 40 00 	ldd  [ %o1 ], %g2
    4e0c:	90 02 20 08 	add  %o0, 8, %o0
    4e10:	c4 22 3f f8 	st  %g2, [ %o0 + -8 ]
    4e14:	92 02 60 08 	add  %o1, 8, %o1
    4e18:	c6 22 3f fc 	st  %g3, [ %o0 + -4 ]
    4e1c:	02 80 00 06 	be  4e34 <__GI_memcpy+0x228>
    4e20:	80 88 60 02 	btst  2, %g1
    4e24:	c4 02 40 00 	ld  [ %o1 ], %g2
    4e28:	92 02 60 04 	add  %o1, 4, %o1
    4e2c:	c4 22 00 00 	st  %g2, [ %o0 ]
    4e30:	90 02 20 04 	add  %o0, 4, %o0
    4e34:	02 80 00 06 	be  4e4c <__GI_memcpy+0x240>
    4e38:	80 88 60 01 	btst  1, %g1
    4e3c:	c4 12 40 00 	lduh  [ %o1 ], %g2
    4e40:	92 02 60 02 	add  %o1, 2, %o1
    4e44:	c4 32 00 00 	sth  %g2, [ %o0 ]
    4e48:	90 02 20 02 	add  %o0, 2, %o0
    4e4c:	02 80 00 04 	be  4e5c <__GI_memcpy+0x250>
    4e50:	01 00 00 00 	nop 
    4e54:	c4 0a 40 00 	ldub  [ %o1 ], %g2
    4e58:	c4 2a 00 00 	stb  %g2, [ %o0 ]
    4e5c:	81 c3 e0 08 	retl 
    4e60:	d0 03 a0 40 	ld  [ %sp + 0x40 ], %o0
    4e64:	d4 1a 60 00 	ldd  [ %o1 ], %o2
    4e68:	d8 1a 60 08 	ldd  [ %o1 + 8 ], %o4
    4e6c:	c4 1a 60 10 	ldd  [ %o1 + 0x10 ], %g2
    4e70:	c8 1a 60 18 	ldd  [ %o1 + 0x18 ], %g4
    4e74:	d4 3a 20 00 	std  %o2, [ %o0 ]
    4e78:	d8 3a 20 08 	std  %o4, [ %o0 + 8 ]
    4e7c:	c4 3a 20 10 	std  %g2, [ %o0 + 0x10 ]
    4e80:	c8 3a 20 18 	std  %g4, [ %o0 + 0x18 ]
    4e84:	d4 1a 60 20 	ldd  [ %o1 + 0x20 ], %o2
    4e88:	d8 1a 60 28 	ldd  [ %o1 + 0x28 ], %o4
    4e8c:	c4 1a 60 30 	ldd  [ %o1 + 0x30 ], %g2
    4e90:	c8 1a 60 38 	ldd  [ %o1 + 0x38 ], %g4
    4e94:	d4 3a 20 20 	std  %o2, [ %o0 + 0x20 ]
    4e98:	d8 3a 20 28 	std  %o4, [ %o0 + 0x28 ]
    4e9c:	c4 3a 20 30 	std  %g2, [ %o0 + 0x30 ]
    4ea0:	c8 3a 20 38 	std  %g4, [ %o0 + 0x38 ]
    4ea4:	d4 1a 60 40 	ldd  [ %o1 + 0x40 ], %o2
    4ea8:	d8 1a 60 48 	ldd  [ %o1 + 0x48 ], %o4
    4eac:	c4 1a 60 50 	ldd  [ %o1 + 0x50 ], %g2
    4eb0:	c8 1a 60 58 	ldd  [ %o1 + 0x58 ], %g4
    4eb4:	d4 3a 20 40 	std  %o2, [ %o0 + 0x40 ]
    4eb8:	d8 3a 20 48 	std  %o4, [ %o0 + 0x48 ]
    4ebc:	c4 3a 20 50 	std  %g2, [ %o0 + 0x50 ]
    4ec0:	c8 3a 20 58 	std  %g4, [ %o0 + 0x58 ]
    4ec4:	d4 1a 60 60 	ldd  [ %o1 + 0x60 ], %o2
    4ec8:	d8 1a 60 68 	ldd  [ %o1 + 0x68 ], %o4
    4ecc:	c4 1a 60 70 	ldd  [ %o1 + 0x70 ], %g2
    4ed0:	c8 1a 60 78 	ldd  [ %o1 + 0x78 ], %g4
    4ed4:	d4 3a 20 60 	std  %o2, [ %o0 + 0x60 ]
    4ed8:	d8 3a 20 68 	std  %o4, [ %o0 + 0x68 ]
    4edc:	c4 3a 20 70 	std  %g2, [ %o0 + 0x70 ]
    4ee0:	c8 3a 20 78 	std  %g4, [ %o0 + 0x78 ]
    4ee4:	8c a1 a0 80 	subcc  %g6, 0x80, %g6
    4ee8:	92 02 60 80 	add  %o1, 0x80, %o1
    4eec:	12 bf ff de 	bne  4e64 <__GI_memcpy+0x258>
    4ef0:	90 02 20 80 	add  %o0, 0x80, %o0
    4ef4:	8c 88 60 70 	andcc  %g1, 0x70, %g6
    4ef8:	02 80 00 24 	be  4f88 <__GI_memcpy+0x37c>
    4efc:	80 88 60 08 	btst  8, %g1
    4f00:	84 10 00 0f 	mov  %o7, %g2
    4f04:	40 00 03 5d 	call  5c78 <__GI_memcpy+0x106c>
    4f08:	92 02 40 06 	add  %o1, %g6, %o1
    4f0c:	9e 10 00 02 	mov  %g2, %o7
    4f10:	81 c3 60 84 	jmp  %o5 + 0x84
    4f14:	90 02 00 06 	add  %o0, %g6, %o0
    4f18:	c4 1a 7f 90 	ldd  [ %o1 + -112 ], %g2
    4f1c:	c8 1a 7f 98 	ldd  [ %o1 + -104 ], %g4
    4f20:	c4 3a 3f 90 	std  %g2, [ %o0 + -112 ]
    4f24:	c8 3a 3f 98 	std  %g4, [ %o0 + -104 ]
    4f28:	c4 1a 7f a0 	ldd  [ %o1 + -96 ], %g2
    4f2c:	c8 1a 7f a8 	ldd  [ %o1 + -88 ], %g4
    4f30:	c4 3a 3f a0 	std  %g2, [ %o0 + -96 ]
    4f34:	c8 3a 3f a8 	std  %g4, [ %o0 + -88 ]
    4f38:	c4 1a 7f b0 	ldd  [ %o1 + -80 ], %g2
    4f3c:	c8 1a 7f b8 	ldd  [ %o1 + -72 ], %g4
    4f40:	c4 3a 3f b0 	std  %g2, [ %o0 + -80 ]
    4f44:	c8 3a 3f b8 	std  %g4, [ %o0 + -72 ]
    4f48:	c4 1a 7f c0 	ldd  [ %o1 + -64 ], %g2
    4f4c:	c8 1a 7f c8 	ldd  [ %o1 + -56 ], %g4
    4f50:	c4 3a 3f c0 	std  %g2, [ %o0 + -64 ]
    4f54:	c8 3a 3f c8 	std  %g4, [ %o0 + -56 ]
    4f58:	c4 1a 7f d0 	ldd  [ %o1 + -48 ], %g2
    4f5c:	c8 1a 7f d8 	ldd  [ %o1 + -40 ], %g4
    4f60:	c4 3a 3f d0 	std  %g2, [ %o0 + -48 ]
    4f64:	c8 3a 3f d8 	std  %g4, [ %o0 + -40 ]
    4f68:	c4 1a 7f e0 	ldd  [ %o1 + -32 ], %g2
    4f6c:	c8 1a 7f e8 	ldd  [ %o1 + -24 ], %g4
    4f70:	c4 3a 3f e0 	std  %g2, [ %o0 + -32 ]
    4f74:	c8 3a 3f e8 	std  %g4, [ %o0 + -24 ]
    4f78:	c4 1a 7f f0 	ldd  [ %o1 + -16 ], %g2
    4f7c:	c8 1a 7f f8 	ldd  [ %o1 + -8 ], %g4
    4f80:	c4 3a 3f f0 	std  %g2, [ %o0 + -16 ]
    4f84:	c8 3a 3f f8 	std  %g4, [ %o0 + -8 ]
    4f88:	02 80 00 06 	be  4fa0 <__GI_memcpy+0x394>
    4f8c:	80 88 60 04 	btst  4, %g1
    4f90:	c4 1a 40 00 	ldd  [ %o1 ], %g2
    4f94:	90 02 20 08 	add  %o0, 8, %o0
    4f98:	c4 3a 3f f8 	std  %g2, [ %o0 + -8 ]
    4f9c:	92 02 60 08 	add  %o1, 8, %o1
    4fa0:	02 80 00 06 	be  4fb8 <__GI_memcpy+0x3ac>
    4fa4:	80 88 60 02 	btst  2, %g1
    4fa8:	c4 02 40 00 	ld  [ %o1 ], %g2
    4fac:	92 02 60 04 	add  %o1, 4, %o1
    4fb0:	c4 22 00 00 	st  %g2, [ %o0 ]
    4fb4:	90 02 20 04 	add  %o0, 4, %o0
    4fb8:	02 80 00 06 	be  4fd0 <__GI_memcpy+0x3c4>
    4fbc:	80 88 60 01 	btst  1, %g1
    4fc0:	c4 12 40 00 	lduh  [ %o1 ], %g2
    4fc4:	92 02 60 02 	add  %o1, 2, %o1
    4fc8:	c4 32 00 00 	sth  %g2, [ %o0 ]
    4fcc:	90 02 20 02 	add  %o0, 2, %o0
    4fd0:	02 80 00 04 	be  4fe0 <__GI_memcpy+0x3d4>
    4fd4:	01 00 00 00 	nop 
    4fd8:	c4 0a 40 00 	ldub  [ %o1 ], %g2
    4fdc:	c4 2a 00 00 	stb  %g2, [ %o0 ]
    4fe0:	81 c3 e0 08 	retl 
    4fe4:	d0 03 a0 40 	ld  [ %sp + 0x40 ], %o0
    4fe8:	80 a2 a0 06 	cmp  %o2, 6
    4fec:	08 80 02 ea 	bleu  5b94 <__GI_memcpy+0xf88>
    4ff0:	80 a2 a1 00 	cmp  %o2, 0x100
    4ff4:	1a 80 00 65 	bcc  5188 <__GI_memcpy+0x57c>
    4ff8:	80 8a 20 03 	btst  3, %o0
    4ffc:	02 80 00 11 	be  5040 <__GI_memcpy+0x434>
    5000:	80 8a 20 01 	btst  1, %o0
    5004:	02 80 00 08 	be  5024 <__GI_memcpy+0x418>
    5008:	80 8a 20 02 	btst  2, %o0
    500c:	ca 0a 40 00 	ldub  [ %o1 ], %g5
    5010:	92 02 60 01 	inc  %o1
    5014:	ca 2a 00 00 	stb  %g5, [ %o0 ]
    5018:	94 22 a0 01 	dec  %o2
    501c:	12 80 00 09 	bne  5040 <__GI_memcpy+0x434>
    5020:	90 02 20 01 	inc  %o0
    5024:	c6 0a 40 00 	ldub  [ %o1 ], %g3
    5028:	92 02 60 02 	add  %o1, 2, %o1
    502c:	c6 2a 00 00 	stb  %g3, [ %o0 ]
    5030:	94 22 a0 02 	sub  %o2, 2, %o2
    5034:	c6 0a 7f ff 	ldub  [ %o1 + -1 ], %g3
    5038:	90 02 20 02 	add  %o0, 2, %o0
    503c:	c6 2a 3f ff 	stb  %g3, [ %o0 + -1 ]
    5040:	84 0a 60 03 	and  %o1, 3, %g2
    5044:	86 0a a0 0c 	and  %o2, 0xc, %g3
    5048:	92 0a 7f fc 	and  %o1, -4, %o1
    504c:	80 a0 e0 04 	cmp  %g3, 4
    5050:	89 28 a0 03 	sll  %g2, 3, %g4
    5054:	84 10 20 20 	mov  0x20, %g2
    5058:	02 80 00 17 	be  50b4 <__GI_memcpy+0x4a8>
    505c:	8c 20 80 04 	sub  %g2, %g4, %g6
    5060:	0a 80 00 0f 	bcs  509c <__GI_memcpy+0x490>
    5064:	80 a0 e0 08 	cmp  %g3, 8
    5068:	02 80 00 07 	be  5084 <__GI_memcpy+0x478>
    506c:	87 32 a0 02 	srl  %o2, 2, %g3
    5070:	d6 02 40 00 	ld  [ %o1 ], %o3
    5074:	90 02 3f f8 	add  %o0, -8, %o0
    5078:	d8 02 60 04 	ld  [ %o1 + 4 ], %o4
    507c:	10 80 00 1f 	b  50f8 <__GI_memcpy+0x4ec>
    5080:	86 00 e0 01 	inc  %g3
    5084:	d8 02 40 00 	ld  [ %o1 ], %o4
    5088:	90 02 3f f4 	add  %o0, -12, %o0
    508c:	da 02 60 04 	ld  [ %o1 + 4 ], %o5
    5090:	86 00 e0 02 	add  %g3, 2, %g3
    5094:	10 80 00 1e 	b  510c <__GI_memcpy+0x500>
    5098:	92 02 7f fc 	add  %o1, -4, %o1
    509c:	c2 02 40 00 	ld  [ %o1 ], %g1
    50a0:	90 02 3f fc 	add  %o0, -4, %o0
    50a4:	d6 02 60 04 	ld  [ %o1 + 4 ], %o3
    50a8:	87 32 a0 02 	srl  %o2, 2, %g3
    50ac:	10 80 00 0e 	b  50e4 <__GI_memcpy+0x4d8>
    50b0:	92 02 60 04 	add  %o1, 4, %o1
    50b4:	da 02 40 00 	ld  [ %o1 ], %o5
    50b8:	80 a2 a0 07 	cmp  %o2, 7
    50bc:	c2 02 60 04 	ld  [ %o1 + 4 ], %g1
    50c0:	87 32 a0 02 	srl  %o2, 2, %g3
    50c4:	08 80 00 1c 	bleu  5134 <__GI_memcpy+0x528>
    50c8:	92 02 60 08 	add  %o1, 8, %o1
    50cc:	d6 02 40 00 	ld  [ %o1 ], %o3
    50d0:	86 00 ff ff 	add  %g3, -1, %g3
    50d4:	85 2b 40 04 	sll  %o5, %g4, %g2
    50d8:	8b 30 40 06 	srl  %g1, %g6, %g5
    50dc:	84 10 80 05 	or  %g2, %g5, %g2
    50e0:	c4 22 00 00 	st  %g2, [ %o0 ]
    50e4:	d8 02 60 04 	ld  [ %o1 + 4 ], %o4
    50e8:	85 28 40 04 	sll  %g1, %g4, %g2
    50ec:	8b 32 c0 06 	srl  %o3, %g6, %g5
    50f0:	84 10 80 05 	or  %g2, %g5, %g2
    50f4:	c4 22 20 04 	st  %g2, [ %o0 + 4 ]
    50f8:	da 02 60 08 	ld  [ %o1 + 8 ], %o5
    50fc:	85 2a c0 04 	sll  %o3, %g4, %g2
    5100:	8b 33 00 06 	srl  %o4, %g6, %g5
    5104:	84 10 80 05 	or  %g2, %g5, %g2
    5108:	c4 22 20 08 	st  %g2, [ %o0 + 8 ]
    510c:	c2 02 60 0c 	ld  [ %o1 + 0xc ], %g1
    5110:	85 2b 00 04 	sll  %o4, %g4, %g2
    5114:	8b 33 40 06 	srl  %o5, %g6, %g5
    5118:	86 80 ff fc 	addcc  %g3, -4, %g3
    511c:	84 10 80 05 	or  %g2, %g5, %g2
    5120:	92 02 60 10 	add  %o1, 0x10, %o1
    5124:	c4 22 20 0c 	st  %g2, [ %o0 + 0xc ]
    5128:	90 02 20 10 	add  %o0, 0x10, %o0
    512c:	32 bf ff ea 	bne,a   50d4 <__GI_memcpy+0x4c8>
    5130:	d6 02 40 00 	ld  [ %o1 ], %o3
    5134:	85 2b 40 04 	sll  %o5, %g4, %g2
    5138:	8b 30 40 06 	srl  %g1, %g6, %g5
    513c:	87 31 a0 03 	srl  %g6, 3, %g3
    5140:	84 10 80 05 	or  %g2, %g5, %g2
    5144:	92 22 40 03 	sub  %o1, %g3, %o1
    5148:	80 8a a0 02 	btst  2, %o2
    514c:	c4 22 00 00 	st  %g2, [ %o0 ]
    5150:	02 80 00 08 	be  5170 <__GI_memcpy+0x564>
    5154:	80 8a a0 01 	btst  1, %o2
    5158:	c4 0a 40 00 	ldub  [ %o1 ], %g2
    515c:	92 02 60 02 	add  %o1, 2, %o1
    5160:	c4 2a 20 04 	stb  %g2, [ %o0 + 4 ]
    5164:	90 02 20 02 	add  %o0, 2, %o0
    5168:	c4 0a 7f ff 	ldub  [ %o1 + -1 ], %g2
    516c:	c4 2a 20 03 	stb  %g2, [ %o0 + 3 ]
    5170:	02 80 00 04 	be  5180 <__GI_memcpy+0x574>
    5174:	01 00 00 00 	nop 
    5178:	c4 0a 40 00 	ldub  [ %o1 ], %g2
    517c:	c4 2a 20 04 	stb  %g2, [ %o0 + 4 ]
    5180:	81 c3 e0 08 	retl 
    5184:	d0 03 a0 40 	ld  [ %sp + 0x40 ], %o0
    5188:	80 8a 60 03 	btst  3, %o1
    518c:	02 80 00 11 	be  51d0 <__GI_memcpy+0x5c4>
    5190:	80 8a 60 01 	btst  1, %o1
    5194:	02 80 00 08 	be  51b4 <__GI_memcpy+0x5a8>
    5198:	80 8a 60 02 	btst  2, %o1
    519c:	c4 0a 40 00 	ldub  [ %o1 ], %g2
    51a0:	92 02 60 01 	inc  %o1
    51a4:	c4 2a 00 00 	stb  %g2, [ %o0 ]
    51a8:	94 22 a0 01 	dec  %o2
    51ac:	12 80 00 09 	bne  51d0 <__GI_memcpy+0x5c4>
    51b0:	90 02 20 01 	inc  %o0
    51b4:	c4 12 40 00 	lduh  [ %o1 ], %g2
    51b8:	92 02 60 02 	add  %o1, 2, %o1
    51bc:	87 30 a0 08 	srl  %g2, 8, %g3
    51c0:	94 22 a0 02 	sub  %o2, 2, %o2
    51c4:	c6 2a 00 00 	stb  %g3, [ %o0 ]
    51c8:	90 02 20 02 	add  %o0, 2, %o0
    51cc:	c4 2a 3f ff 	stb  %g2, [ %o0 + -1 ]
    51d0:	80 8a 60 04 	btst  4, %o1
    51d4:	12 80 00 0d 	bne  5208 <__GI_memcpy+0x5fc>
    51d8:	80 a3 60 01 	cmp  %o5, 1
    51dc:	d8 02 40 00 	ld  [ %o1 ], %o4
    51e0:	85 33 20 18 	srl  %o4, 0x18, %g2
    51e4:	c4 2a 00 00 	stb  %g2, [ %o0 ]
    51e8:	87 33 20 10 	srl  %o4, 0x10, %g3
    51ec:	c6 2a 20 01 	stb  %g3, [ %o0 + 1 ]
    51f0:	85 33 20 08 	srl  %o4, 8, %g2
    51f4:	c4 2a 20 02 	stb  %g2, [ %o0 + 2 ]
    51f8:	94 22 a0 04 	sub  %o2, 4, %o2
    51fc:	d8 2a 20 03 	stb  %o4, [ %o0 + 3 ]
    5200:	92 02 60 04 	add  %o1, 4, %o1
    5204:	90 02 20 04 	add  %o0, 4, %o0
    5208:	02 80 00 da 	be  5570 <__GI_memcpy+0x964>
    520c:	80 a3 60 02 	cmp  %o5, 2
    5210:	02 80 00 6e 	be  53c8 <__GI_memcpy+0x7bc>
    5214:	94 22 a0 04 	sub  %o2, 4, %o2
    5218:	c4 02 40 00 	ld  [ %o1 ], %g2
    521c:	92 02 60 04 	add  %o1, 4, %o1
    5220:	87 30 a0 18 	srl  %g2, 0x18, %g3
    5224:	8a 0a 20 07 	and  %o0, 7, %g5
    5228:	c6 2a 00 00 	stb  %g3, [ %o0 ]
    522c:	80 a1 60 07 	cmp  %g5, 7
    5230:	83 28 a0 08 	sll  %g2, 8, %g1
    5234:	90 02 20 04 	add  %o0, 4, %o0
    5238:	02 80 01 3b 	be  5724 <__GI_memcpy+0xb18>
    523c:	96 0a bf c0 	and  %o2, -64, %o3
    5240:	d8 02 3f f9 	ld  [ %o0 + -7 ], %o4
    5244:	c4 1a 60 00 	ldd  [ %o1 ], %g2
    5248:	c8 1a 60 08 	ldd  [ %o1 + 8 ], %g4
    524c:	9b 30 a0 18 	srl  %g2, 0x18, %o5
    5250:	8d 30 e0 18 	srl  %g3, 0x18, %g6
    5254:	85 28 a0 08 	sll  %g2, 8, %g2
    5258:	9a 13 40 01 	or  %o5, %g1, %o5
    525c:	83 28 e0 08 	sll  %g3, 8, %g1
    5260:	84 11 80 02 	or  %g6, %g2, %g2
    5264:	87 31 20 18 	srl  %g4, 0x18, %g3
    5268:	8d 31 60 18 	srl  %g5, 0x18, %g6
    526c:	89 29 20 08 	sll  %g4, 8, %g4
    5270:	86 10 c0 01 	or  %g3, %g1, %g3
    5274:	d8 3a 3f f9 	std  %o4, [ %o0 + -7 ]
    5278:	c4 3a 20 01 	std  %g2, [ %o0 + 1 ]
    527c:	83 29 60 08 	sll  %g5, 8, %g1
    5280:	98 11 80 04 	or  %g6, %g4, %o4
    5284:	c4 1a 60 10 	ldd  [ %o1 + 0x10 ], %g2
    5288:	c8 1a 60 18 	ldd  [ %o1 + 0x18 ], %g4
    528c:	9b 30 a0 18 	srl  %g2, 0x18, %o5
    5290:	8d 30 e0 18 	srl  %g3, 0x18, %g6
    5294:	85 28 a0 08 	sll  %g2, 8, %g2
    5298:	9a 13 40 01 	or  %o5, %g1, %o5
    529c:	83 28 e0 08 	sll  %g3, 8, %g1
    52a0:	84 11 80 02 	or  %g6, %g2, %g2
    52a4:	87 31 20 18 	srl  %g4, 0x18, %g3
    52a8:	8d 31 60 18 	srl  %g5, 0x18, %g6
    52ac:	89 29 20 08 	sll  %g4, 8, %g4
    52b0:	86 10 c0 01 	or  %g3, %g1, %g3
    52b4:	d8 3a 20 09 	std  %o4, [ %o0 + 9 ]
    52b8:	c4 3a 20 11 	std  %g2, [ %o0 + 0x11 ]
    52bc:	83 29 60 08 	sll  %g5, 8, %g1
    52c0:	98 11 80 04 	or  %g6, %g4, %o4
    52c4:	c4 1a 60 20 	ldd  [ %o1 + 0x20 ], %g2
    52c8:	c8 1a 60 28 	ldd  [ %o1 + 0x28 ], %g4
    52cc:	9b 30 a0 18 	srl  %g2, 0x18, %o5
    52d0:	8d 30 e0 18 	srl  %g3, 0x18, %g6
    52d4:	85 28 a0 08 	sll  %g2, 8, %g2
    52d8:	9a 13 40 01 	or  %o5, %g1, %o5
    52dc:	83 28 e0 08 	sll  %g3, 8, %g1
    52e0:	84 11 80 02 	or  %g6, %g2, %g2
    52e4:	87 31 20 18 	srl  %g4, 0x18, %g3
    52e8:	8d 31 60 18 	srl  %g5, 0x18, %g6
    52ec:	89 29 20 08 	sll  %g4, 8, %g4
    52f0:	86 10 c0 01 	or  %g3, %g1, %g3
    52f4:	d8 3a 20 19 	std  %o4, [ %o0 + 0x19 ]
    52f8:	c4 3a 20 21 	std  %g2, [ %o0 + 0x21 ]
    52fc:	83 29 60 08 	sll  %g5, 8, %g1
    5300:	98 11 80 04 	or  %g6, %g4, %o4
    5304:	c4 1a 60 30 	ldd  [ %o1 + 0x30 ], %g2
    5308:	c8 1a 60 38 	ldd  [ %o1 + 0x38 ], %g4
    530c:	9b 30 a0 18 	srl  %g2, 0x18, %o5
    5310:	8d 30 e0 18 	srl  %g3, 0x18, %g6
    5314:	85 28 a0 08 	sll  %g2, 8, %g2
    5318:	9a 13 40 01 	or  %o5, %g1, %o5
    531c:	83 28 e0 08 	sll  %g3, 8, %g1
    5320:	84 11 80 02 	or  %g6, %g2, %g2
    5324:	87 31 20 18 	srl  %g4, 0x18, %g3
    5328:	8d 31 60 18 	srl  %g5, 0x18, %g6
    532c:	89 29 20 08 	sll  %g4, 8, %g4
    5330:	86 10 c0 01 	or  %g3, %g1, %g3
    5334:	d8 3a 20 29 	std  %o4, [ %o0 + 0x29 ]
    5338:	c4 3a 20 31 	std  %g2, [ %o0 + 0x31 ]
    533c:	83 29 60 08 	sll  %g5, 8, %g1
    5340:	98 11 80 04 	or  %g6, %g4, %o4
    5344:	96 a2 e0 40 	subcc  %o3, 0x40, %o3
    5348:	92 02 60 40 	add  %o1, 0x40, %o1
    534c:	12 bf ff be 	bne  5244 <__GI_memcpy+0x638>
    5350:	90 02 20 40 	add  %o0, 0x40, %o0
    5354:	96 8a a0 30 	andcc  %o2, 0x30, %o3
    5358:	22 80 00 17 	be,a   53b4 <__GI_memcpy+0x7a8>
    535c:	85 30 60 10 	srl  %g1, 0x10, %g2
    5360:	c4 1a 60 00 	ldd  [ %o1 ], %g2
    5364:	c8 1a 60 08 	ldd  [ %o1 + 8 ], %g4
    5368:	9b 30 a0 18 	srl  %g2, 0x18, %o5
    536c:	8d 30 e0 18 	srl  %g3, 0x18, %g6
    5370:	85 28 a0 08 	sll  %g2, 8, %g2
    5374:	9a 13 40 01 	or  %o5, %g1, %o5
    5378:	83 28 e0 08 	sll  %g3, 8, %g1
    537c:	84 11 80 02 	or  %g6, %g2, %g2
    5380:	87 31 20 18 	srl  %g4, 0x18, %g3
    5384:	8d 31 60 18 	srl  %g5, 0x18, %g6
    5388:	89 29 20 08 	sll  %g4, 8, %g4
    538c:	86 10 c0 01 	or  %g3, %g1, %g3
    5390:	d8 3a 3f f9 	std  %o4, [ %o0 + -7 ]
    5394:	c4 3a 20 01 	std  %g2, [ %o0 + 1 ]
    5398:	83 29 60 08 	sll  %g5, 8, %g1
    539c:	98 11 80 04 	or  %g6, %g4, %o4
    53a0:	96 a2 e0 10 	subcc  %o3, 0x10, %o3
    53a4:	92 02 60 10 	add  %o1, 0x10, %o1
    53a8:	12 bf ff ee 	bne  5360 <__GI_memcpy+0x754>
    53ac:	90 02 20 10 	add  %o0, 0x10, %o0
    53b0:	85 30 60 10 	srl  %g1, 0x10, %g2
    53b4:	d8 22 3f f9 	st  %o4, [ %o0 + -7 ]
    53b8:	c4 32 3f fd 	sth  %g2, [ %o0 + -3 ]
    53bc:	89 30 60 08 	srl  %g1, 8, %g4
    53c0:	10 80 01 f5 	b  5b94 <__GI_memcpy+0xf88>
    53c4:	c8 2a 3f ff 	stb  %g4, [ %o0 + -1 ]
    53c8:	c4 02 40 00 	ld  [ %o1 ], %g2
    53cc:	92 02 60 04 	add  %o1, 4, %o1
    53d0:	87 30 a0 10 	srl  %g2, 0x10, %g3
    53d4:	8a 0a 20 07 	and  %o0, 7, %g5
    53d8:	c6 32 00 00 	sth  %g3, [ %o0 ]
    53dc:	80 a1 60 06 	cmp  %g5, 6
    53e0:	83 28 a0 10 	sll  %g2, 0x10, %g1
    53e4:	90 02 20 04 	add  %o0, 4, %o0
    53e8:	02 80 01 8e 	be  5a20 <__GI_memcpy+0xe14>
    53ec:	96 0a bf c0 	and  %o2, -64, %o3
    53f0:	d8 02 3f fa 	ld  [ %o0 + -6 ], %o4
    53f4:	c4 1a 60 00 	ldd  [ %o1 ], %g2
    53f8:	c8 1a 60 08 	ldd  [ %o1 + 8 ], %g4
    53fc:	9b 30 a0 10 	srl  %g2, 0x10, %o5
    5400:	8d 30 e0 10 	srl  %g3, 0x10, %g6
    5404:	85 28 a0 10 	sll  %g2, 0x10, %g2
    5408:	9a 13 40 01 	or  %o5, %g1, %o5
    540c:	83 28 e0 10 	sll  %g3, 0x10, %g1
    5410:	84 11 80 02 	or  %g6, %g2, %g2
    5414:	87 31 20 10 	srl  %g4, 0x10, %g3
    5418:	8d 31 60 10 	srl  %g5, 0x10, %g6
    541c:	89 29 20 10 	sll  %g4, 0x10, %g4
    5420:	86 10 c0 01 	or  %g3, %g1, %g3
    5424:	d8 3a 3f fa 	std  %o4, [ %o0 + -6 ]
    5428:	c4 3a 20 02 	std  %g2, [ %o0 + 2 ]
    542c:	83 29 60 10 	sll  %g5, 0x10, %g1
    5430:	98 11 80 04 	or  %g6, %g4, %o4
    5434:	c4 1a 60 10 	ldd  [ %o1 + 0x10 ], %g2
    5438:	c8 1a 60 18 	ldd  [ %o1 + 0x18 ], %g4
    543c:	9b 30 a0 10 	srl  %g2, 0x10, %o5
    5440:	8d 30 e0 10 	srl  %g3, 0x10, %g6
    5444:	85 28 a0 10 	sll  %g2, 0x10, %g2
    5448:	9a 13 40 01 	or  %o5, %g1, %o5
    544c:	83 28 e0 10 	sll  %g3, 0x10, %g1
    5450:	84 11 80 02 	or  %g6, %g2, %g2
    5454:	87 31 20 10 	srl  %g4, 0x10, %g3
    5458:	8d 31 60 10 	srl  %g5, 0x10, %g6
    545c:	89 29 20 10 	sll  %g4, 0x10, %g4
    5460:	86 10 c0 01 	or  %g3, %g1, %g3
    5464:	d8 3a 20 0a 	std  %o4, [ %o0 + 0xa ]
    5468:	c4 3a 20 12 	std  %g2, [ %o0 + 0x12 ]
    546c:	83 29 60 10 	sll  %g5, 0x10, %g1
    5470:	98 11 80 04 	or  %g6, %g4, %o4
    5474:	c4 1a 60 20 	ldd  [ %o1 + 0x20 ], %g2
    5478:	c8 1a 60 28 	ldd  [ %o1 + 0x28 ], %g4
    547c:	9b 30 a0 10 	srl  %g2, 0x10, %o5
    5480:	8d 30 e0 10 	srl  %g3, 0x10, %g6
    5484:	85 28 a0 10 	sll  %g2, 0x10, %g2
    5488:	9a 13 40 01 	or  %o5, %g1, %o5
    548c:	83 28 e0 10 	sll  %g3, 0x10, %g1
    5490:	84 11 80 02 	or  %g6, %g2, %g2
    5494:	87 31 20 10 	srl  %g4, 0x10, %g3
    5498:	8d 31 60 10 	srl  %g5, 0x10, %g6
    549c:	89 29 20 10 	sll  %g4, 0x10, %g4
    54a0:	86 10 c0 01 	or  %g3, %g1, %g3
    54a4:	d8 3a 20 1a 	std  %o4, [ %o0 + 0x1a ]
    54a8:	c4 3a 20 22 	std  %g2, [ %o0 + 0x22 ]
    54ac:	83 29 60 10 	sll  %g5, 0x10, %g1
    54b0:	98 11 80 04 	or  %g6, %g4, %o4
    54b4:	c4 1a 60 30 	ldd  [ %o1 + 0x30 ], %g2
    54b8:	c8 1a 60 38 	ldd  [ %o1 + 0x38 ], %g4
    54bc:	9b 30 a0 10 	srl  %g2, 0x10, %o5
    54c0:	8d 30 e0 10 	srl  %g3, 0x10, %g6
    54c4:	85 28 a0 10 	sll  %g2, 0x10, %g2
    54c8:	9a 13 40 01 	or  %o5, %g1, %o5
    54cc:	83 28 e0 10 	sll  %g3, 0x10, %g1
    54d0:	84 11 80 02 	or  %g6, %g2, %g2
    54d4:	87 31 20 10 	srl  %g4, 0x10, %g3
    54d8:	8d 31 60 10 	srl  %g5, 0x10, %g6
    54dc:	89 29 20 10 	sll  %g4, 0x10, %g4
    54e0:	86 10 c0 01 	or  %g3, %g1, %g3
    54e4:	d8 3a 20 2a 	std  %o4, [ %o0 + 0x2a ]
    54e8:	c4 3a 20 32 	std  %g2, [ %o0 + 0x32 ]
    54ec:	83 29 60 10 	sll  %g5, 0x10, %g1
    54f0:	98 11 80 04 	or  %g6, %g4, %o4
    54f4:	96 a2 e0 40 	subcc  %o3, 0x40, %o3
    54f8:	92 02 60 40 	add  %o1, 0x40, %o1
    54fc:	12 bf ff be 	bne  53f4 <__GI_memcpy+0x7e8>
    5500:	90 02 20 40 	add  %o0, 0x40, %o0
    5504:	96 8a a0 30 	andcc  %o2, 0x30, %o3
    5508:	22 80 00 17 	be,a   5564 <__GI_memcpy+0x958>
    550c:	85 30 60 10 	srl  %g1, 0x10, %g2
    5510:	c4 1a 60 00 	ldd  [ %o1 ], %g2
    5514:	c8 1a 60 08 	ldd  [ %o1 + 8 ], %g4
    5518:	9b 30 a0 10 	srl  %g2, 0x10, %o5
    551c:	8d 30 e0 10 	srl  %g3, 0x10, %g6
    5520:	85 28 a0 10 	sll  %g2, 0x10, %g2
    5524:	9a 13 40 01 	or  %o5, %g1, %o5
    5528:	83 28 e0 10 	sll  %g3, 0x10, %g1
    552c:	84 11 80 02 	or  %g6, %g2, %g2
    5530:	87 31 20 10 	srl  %g4, 0x10, %g3
    5534:	8d 31 60 10 	srl  %g5, 0x10, %g6
    5538:	89 29 20 10 	sll  %g4, 0x10, %g4
    553c:	86 10 c0 01 	or  %g3, %g1, %g3
    5540:	d8 3a 3f fa 	std  %o4, [ %o0 + -6 ]
    5544:	c4 3a 20 02 	std  %g2, [ %o0 + 2 ]
    5548:	83 29 60 10 	sll  %g5, 0x10, %g1
    554c:	98 11 80 04 	or  %g6, %g4, %o4
    5550:	96 a2 e0 10 	subcc  %o3, 0x10, %o3
    5554:	92 02 60 10 	add  %o1, 0x10, %o1
    5558:	12 bf ff ee 	bne  5510 <__GI_memcpy+0x904>
    555c:	90 02 20 10 	add  %o0, 0x10, %o0
    5560:	85 30 60 10 	srl  %g1, 0x10, %g2
    5564:	d8 22 3f fa 	st  %o4, [ %o0 + -6 ]
    5568:	10 80 01 8b 	b  5b94 <__GI_memcpy+0xf88>
    556c:	c4 32 3f fe 	sth  %g2, [ %o0 + -2 ]
    5570:	c4 02 40 00 	ld  [ %o1 ], %g2
    5574:	94 22 a0 04 	sub  %o2, 4, %o2
    5578:	87 30 a0 18 	srl  %g2, 0x18, %g3
    557c:	8a 0a 20 07 	and  %o0, 7, %g5
    5580:	c6 2a 00 00 	stb  %g3, [ %o0 ]
    5584:	80 a1 60 05 	cmp  %g5, 5
    5588:	89 30 a0 08 	srl  %g2, 8, %g4
    558c:	83 28 a0 18 	sll  %g2, 0x18, %g1
    5590:	c8 32 20 01 	sth  %g4, [ %o0 + 1 ]
    5594:	92 02 60 04 	add  %o1, 4, %o1
    5598:	02 80 00 c3 	be  58a4 <__GI_memcpy+0xc98>
    559c:	96 0a bf c0 	and  %o2, -64, %o3
    55a0:	d8 02 3f ff 	ld  [ %o0 + -1 ], %o4
    55a4:	90 02 20 04 	add  %o0, 4, %o0
    55a8:	c4 1a 60 00 	ldd  [ %o1 ], %g2
    55ac:	c8 1a 60 08 	ldd  [ %o1 + 8 ], %g4
    55b0:	9b 30 a0 08 	srl  %g2, 8, %o5
    55b4:	8d 30 e0 08 	srl  %g3, 8, %g6
    55b8:	85 28 a0 18 	sll  %g2, 0x18, %g2
    55bc:	9a 13 40 01 	or  %o5, %g1, %o5
    55c0:	83 28 e0 18 	sll  %g3, 0x18, %g1
    55c4:	84 11 80 02 	or  %g6, %g2, %g2
    55c8:	87 31 20 08 	srl  %g4, 8, %g3
    55cc:	8d 31 60 08 	srl  %g5, 8, %g6
    55d0:	89 29 20 18 	sll  %g4, 0x18, %g4
    55d4:	86 10 c0 01 	or  %g3, %g1, %g3
    55d8:	d8 3a 3f fb 	std  %o4, [ %o0 + -5 ]
    55dc:	c4 3a 20 03 	std  %g2, [ %o0 + 3 ]
    55e0:	83 29 60 18 	sll  %g5, 0x18, %g1
    55e4:	98 11 80 04 	or  %g6, %g4, %o4
    55e8:	c4 1a 60 10 	ldd  [ %o1 + 0x10 ], %g2
    55ec:	c8 1a 60 18 	ldd  [ %o1 + 0x18 ], %g4
    55f0:	9b 30 a0 08 	srl  %g2, 8, %o5
    55f4:	8d 30 e0 08 	srl  %g3, 8, %g6
    55f8:	85 28 a0 18 	sll  %g2, 0x18, %g2
    55fc:	9a 13 40 01 	or  %o5, %g1, %o5
    5600:	83 28 e0 18 	sll  %g3, 0x18, %g1
    5604:	84 11 80 02 	or  %g6, %g2, %g2
    5608:	87 31 20 08 	srl  %g4, 8, %g3
    560c:	8d 31 60 08 	srl  %g5, 8, %g6
    5610:	89 29 20 18 	sll  %g4, 0x18, %g4
    5614:	86 10 c0 01 	or  %g3, %g1, %g3
    5618:	d8 3a 20 0b 	std  %o4, [ %o0 + 0xb ]
    561c:	c4 3a 20 13 	std  %g2, [ %o0 + 0x13 ]
    5620:	83 29 60 18 	sll  %g5, 0x18, %g1
    5624:	98 11 80 04 	or  %g6, %g4, %o4
    5628:	c4 1a 60 20 	ldd  [ %o1 + 0x20 ], %g2
    562c:	c8 1a 60 28 	ldd  [ %o1 + 0x28 ], %g4
    5630:	9b 30 a0 08 	srl  %g2, 8, %o5
    5634:	8d 30 e0 08 	srl  %g3, 8, %g6
    5638:	85 28 a0 18 	sll  %g2, 0x18, %g2
    563c:	9a 13 40 01 	or  %o5, %g1, %o5
    5640:	83 28 e0 18 	sll  %g3, 0x18, %g1
    5644:	84 11 80 02 	or  %g6, %g2, %g2
    5648:	87 31 20 08 	srl  %g4, 8, %g3
    564c:	8d 31 60 08 	srl  %g5, 8, %g6
    5650:	89 29 20 18 	sll  %g4, 0x18, %g4
    5654:	86 10 c0 01 	or  %g3, %g1, %g3
    5658:	d8 3a 20 1b 	std  %o4, [ %o0 + 0x1b ]
    565c:	c4 3a 20 23 	std  %g2, [ %o0 + 0x23 ]
    5660:	83 29 60 18 	sll  %g5, 0x18, %g1
    5664:	98 11 80 04 	or  %g6, %g4, %o4
    5668:	c4 1a 60 30 	ldd  [ %o1 + 0x30 ], %g2
    566c:	c8 1a 60 38 	ldd  [ %o1 + 0x38 ], %g4
    5670:	9b 30 a0 08 	srl  %g2, 8, %o5
    5674:	8d 30 e0 08 	srl  %g3, 8, %g6
    5678:	85 28 a0 18 	sll  %g2, 0x18, %g2
    567c:	9a 13 40 01 	or  %o5, %g1, %o5
    5680:	83 28 e0 18 	sll  %g3, 0x18, %g1
    5684:	84 11 80 02 	or  %g6, %g2, %g2
    5688:	87 31 20 08 	srl  %g4, 8, %g3
    568c:	8d 31 60 08 	srl  %g5, 8, %g6
    5690:	89 29 20 18 	sll  %g4, 0x18, %g4
    5694:	86 10 c0 01 	or  %g3, %g1, %g3
    5698:	d8 3a 20 2b 	std  %o4, [ %o0 + 0x2b ]
    569c:	c4 3a 20 33 	std  %g2, [ %o0 + 0x33 ]
    56a0:	83 29 60 18 	sll  %g5, 0x18, %g1
    56a4:	98 11 80 04 	or  %g6, %g4, %o4
    56a8:	96 a2 e0 40 	subcc  %o3, 0x40, %o3
    56ac:	92 02 60 40 	add  %o1, 0x40, %o1
    56b0:	12 bf ff be 	bne  55a8 <__GI_memcpy+0x99c>
    56b4:	90 02 20 40 	add  %o0, 0x40, %o0
    56b8:	96 8a a0 30 	andcc  %o2, 0x30, %o3
    56bc:	22 80 00 17 	be,a   5718 <__GI_memcpy+0xb0c>
    56c0:	85 30 60 18 	srl  %g1, 0x18, %g2
    56c4:	c4 1a 60 00 	ldd  [ %o1 ], %g2
    56c8:	c8 1a 60 08 	ldd  [ %o1 + 8 ], %g4
    56cc:	9b 30 a0 08 	srl  %g2, 8, %o5
    56d0:	8d 30 e0 08 	srl  %g3, 8, %g6
    56d4:	85 28 a0 18 	sll  %g2, 0x18, %g2
    56d8:	9a 13 40 01 	or  %o5, %g1, %o5
    56dc:	83 28 e0 18 	sll  %g3, 0x18, %g1
    56e0:	84 11 80 02 	or  %g6, %g2, %g2
    56e4:	87 31 20 08 	srl  %g4, 8, %g3
    56e8:	8d 31 60 08 	srl  %g5, 8, %g6
    56ec:	89 29 20 18 	sll  %g4, 0x18, %g4
    56f0:	86 10 c0 01 	or  %g3, %g1, %g3
    56f4:	d8 3a 3f fb 	std  %o4, [ %o0 + -5 ]
    56f8:	c4 3a 20 03 	std  %g2, [ %o0 + 3 ]
    56fc:	83 29 60 18 	sll  %g5, 0x18, %g1
    5700:	98 11 80 04 	or  %g6, %g4, %o4
    5704:	96 a2 e0 10 	subcc  %o3, 0x10, %o3
    5708:	92 02 60 10 	add  %o1, 0x10, %o1
    570c:	12 bf ff ee 	bne  56c4 <__GI_memcpy+0xab8>
    5710:	90 02 20 10 	add  %o0, 0x10, %o0
    5714:	85 30 60 18 	srl  %g1, 0x18, %g2
    5718:	d8 22 3f fb 	st  %o4, [ %o0 + -5 ]
    571c:	10 80 01 1e 	b  5b94 <__GI_memcpy+0xf88>
    5720:	c4 2a 3f ff 	stb  %g2, [ %o0 + -1 ]
    5724:	c4 1a 60 00 	ldd  [ %o1 ], %g2
    5728:	c8 1a 60 08 	ldd  [ %o1 + 8 ], %g4
    572c:	99 30 a0 18 	srl  %g2, 0x18, %o4
    5730:	9b 30 e0 18 	srl  %g3, 0x18, %o5
    5734:	8d 28 a0 08 	sll  %g2, 8, %g6
    5738:	84 13 00 01 	or  %o4, %g1, %g2
    573c:	83 28 e0 08 	sll  %g3, 8, %g1
    5740:	86 13 40 06 	or  %o5, %g6, %g3
    5744:	99 31 20 18 	srl  %g4, 0x18, %o4
    5748:	9b 31 60 18 	srl  %g5, 0x18, %o5
    574c:	8d 29 20 08 	sll  %g4, 8, %g6
    5750:	88 13 00 01 	or  %o4, %g1, %g4
    5754:	83 29 60 08 	sll  %g5, 8, %g1
    5758:	8a 13 40 06 	or  %o5, %g6, %g5
    575c:	c4 3a 3f fd 	std  %g2, [ %o0 + -3 ]
    5760:	c8 3a 20 05 	std  %g4, [ %o0 + 5 ]
    5764:	c4 1a 60 10 	ldd  [ %o1 + 0x10 ], %g2
    5768:	c8 1a 60 18 	ldd  [ %o1 + 0x18 ], %g4
    576c:	99 30 a0 18 	srl  %g2, 0x18, %o4
    5770:	9b 30 e0 18 	srl  %g3, 0x18, %o5
    5774:	8d 28 a0 08 	sll  %g2, 8, %g6
    5778:	84 13 00 01 	or  %o4, %g1, %g2
    577c:	83 28 e0 08 	sll  %g3, 8, %g1
    5780:	86 13 40 06 	or  %o5, %g6, %g3
    5784:	99 31 20 18 	srl  %g4, 0x18, %o4
    5788:	9b 31 60 18 	srl  %g5, 0x18, %o5
    578c:	8d 29 20 08 	sll  %g4, 8, %g6
    5790:	88 13 00 01 	or  %o4, %g1, %g4
    5794:	83 29 60 08 	sll  %g5, 8, %g1
    5798:	8a 13 40 06 	or  %o5, %g6, %g5
    579c:	c4 3a 20 0d 	std  %g2, [ %o0 + 0xd ]
    57a0:	c8 3a 20 15 	std  %g4, [ %o0 + 0x15 ]
    57a4:	c4 1a 60 20 	ldd  [ %o1 + 0x20 ], %g2
    57a8:	c8 1a 60 28 	ldd  [ %o1 + 0x28 ], %g4
    57ac:	99 30 a0 18 	srl  %g2, 0x18, %o4
    57b0:	9b 30 e0 18 	srl  %g3, 0x18, %o5
    57b4:	8d 28 a0 08 	sll  %g2, 8, %g6
    57b8:	84 13 00 01 	or  %o4, %g1, %g2
    57bc:	83 28 e0 08 	sll  %g3, 8, %g1
    57c0:	86 13 40 06 	or  %o5, %g6, %g3
    57c4:	99 31 20 18 	srl  %g4, 0x18, %o4
    57c8:	9b 31 60 18 	srl  %g5, 0x18, %o5
    57cc:	8d 29 20 08 	sll  %g4, 8, %g6
    57d0:	88 13 00 01 	or  %o4, %g1, %g4
    57d4:	83 29 60 08 	sll  %g5, 8, %g1
    57d8:	8a 13 40 06 	or  %o5, %g6, %g5
    57dc:	c4 3a 20 1d 	std  %g2, [ %o0 + 0x1d ]
    57e0:	c8 3a 20 25 	std  %g4, [ %o0 + 0x25 ]
    57e4:	c4 1a 60 30 	ldd  [ %o1 + 0x30 ], %g2
    57e8:	c8 1a 60 38 	ldd  [ %o1 + 0x38 ], %g4
    57ec:	99 30 a0 18 	srl  %g2, 0x18, %o4
    57f0:	9b 30 e0 18 	srl  %g3, 0x18, %o5
    57f4:	8d 28 a0 08 	sll  %g2, 8, %g6
    57f8:	84 13 00 01 	or  %o4, %g1, %g2
    57fc:	83 28 e0 08 	sll  %g3, 8, %g1
    5800:	86 13 40 06 	or  %o5, %g6, %g3
    5804:	99 31 20 18 	srl  %g4, 0x18, %o4
    5808:	9b 31 60 18 	srl  %g5, 0x18, %o5
    580c:	8d 29 20 08 	sll  %g4, 8, %g6
    5810:	88 13 00 01 	or  %o4, %g1, %g4
    5814:	83 29 60 08 	sll  %g5, 8, %g1
    5818:	8a 13 40 06 	or  %o5, %g6, %g5
    581c:	c4 3a 20 2d 	std  %g2, [ %o0 + 0x2d ]
    5820:	c8 3a 20 35 	std  %g4, [ %o0 + 0x35 ]
    5824:	96 a2 e0 40 	subcc  %o3, 0x40, %o3
